(lp1
(dp2
I1
F1547.8765867613108
sI2
F1340.2479239068643
sI3
F1340.2479239068643
sI4
F1340.2479239068643
sI5
F1340.2479239068643
sI6
F228.87141921084876
sI7
F228.87141921084876
sI8
F228.87141921084876
sI9
F228.87141921084876
sI10
F228.87141921084876
sI11
F228.87141921084876
sI12
F228.87141921084876
sI13
F228.87141921084876
sI14
F228.87141921084876
sI15
F228.87141921084876
sI16
F228.87141921084876
sI17
F228.87141921084876
sI18
F228.87141921084876
sI19
F228.87141921084876
sI20
F228.87141921084876
sI21
F228.87141921084876
sI22
F228.87141921084876
sI23
F228.87141921084876
sI24
F228.87141921084876
sI25
F228.87141921084876
sI26
F228.87141921084876
sI27
F228.87141921084876
sI28
F228.87141921084876
sI29
F228.87141921084876
sI30
F228.87141921084876
sI31
F228.87141921084876
sI32
F228.87141921084876
sI33
F228.87141921084876
sI34
F228.87141921084876
sI35
F228.87141921084876
sI36
F228.87141921084876
sI37
F161.12245971560802
sI38
F161.12245971560802
sI39
F161.12245971560802
sI40
F161.12245971560802
sI41
F161.12245971560802
sI42
F161.12245971560802
sI43
F161.12245971560802
sI44
F161.12245971560802
sI45
F161.12245971560802
sI46
F161.12245971560802
sI47
F161.12245971560802
sI48
F161.12245971560802
sI49
F161.12245971560802
sI50
F161.12245971560802
sI51
F161.12245971560802
sI52
F161.12245971560802
sI53
F161.12245971560802
sI54
F161.12245971560802
sI55
F161.12245971560802
sI56
F161.12245971560802
sI57
F161.12245971560802
sI58
F161.12245971560802
sI59
F161.12245971560802
sI60
F161.12245971560802
sI61
F161.12245971560802
sI62
F161.12245971560802
sI63
F161.12245971560802
sI64
F161.12245971560802
sI65
F161.12245971560802
sI66
F161.12245971560802
sI67
F161.12245971560802
sI68
F161.12245971560802
sI69
F161.12245971560802
sI70
F161.12245971560802
sI71
F161.12245971560802
sI72
F161.12245971560802
sI73
F161.12245971560802
sI74
F161.12245971560802
sI75
F161.12245971560802
sI76
F161.12245971560802
sI77
F161.12245971560802
sI78
F161.12245971560802
sI79
F161.12245971560802
sI80
F161.12245971560802
sI81
F161.12245971560802
sI82
F161.12245971560802
sI83
F161.12245971560802
sI84
F161.12245971560802
sI85
F161.12245971560802
sI86
F161.12245971560802
sI87
F161.12245971560802
sI88
F161.12245971560802
sI89
F161.12245971560802
sI90
F161.12245971560802
sI91
F161.12245971560802
sI92
F161.12245971560802
sI93
F161.12245971560802
sI94
F161.12245971560802
sI95
F161.12245971560802
sI96
F161.12245971560802
sI97
F161.12245971560802
sI98
F161.12245971560802
sI99
F161.12245971560802
sI100
F161.12245971560802
sI101
F161.12245971560802
sI102
F161.12245971560802
sI103
F161.12245971560802
sI104
F161.12245971560802
sI105
F161.12245971560802
sI106
F3.4638784320906169
sI107
F3.4638784320906169
sI108
F3.4638784320906169
sI109
F3.4638784320906169
sI110
F3.4638784320906169
sI111
F3.4638784320906169
sI112
F3.4638784320906169
sI113
F3.4638784320906169
sI114
F3.4638784320906169
sI115
F3.4638784320906169
sI116
F3.4638784320906169
sI117
F3.4638784320906169
sI118
F3.4638784320906169
sI119
F3.4638784320906169
sI120
F3.4638784320906169
sI121
F3.4638784320906169
sI122
F3.4638784320906169
sI123
F3.4638784320906169
sI124
F3.4638784320906169
sI125
F3.4638784320906169
sI126
F3.4638784320906169
sI127
F3.4638784320906169
sI128
F3.4638784320906169
sI129
F3.4638784320906169
sI130
F3.4638784320906169
sI131
F3.4638784320906169
sI132
F3.4638784320906169
sI133
F3.4638784320906169
sI134
F3.4638784320906169
sI135
F3.4638784320906169
sI136
F3.4638784320906169
sI137
F3.4638784320906169
sI138
F3.4638784320906169
sI139
F3.4638784320906169
sI140
F3.4638784320906169
sI141
F3.4638784320906169
sI142
F3.4638784320906169
sI143
F3.4638784320906169
sI144
F3.4638784320906169
sI145
F3.4638784320906169
sI146
F3.4638784320906169
sI147
F3.4638784320906169
sI148
F3.4638784320906169
sI149
F3.4638784320906169
sI150
F3.4638784320906169
sI151
F3.4638784320906169
sI152
F3.4638784320906169
sI153
F3.4638784320906169
sI154
F3.4638784320906169
sI155
F3.4638784320906169
sI156
F3.4638784320906169
sI157
F3.4638784320906169
sI158
F3.4638784320906169
sI159
F3.4638784320906169
sI160
F3.4638784320906169
sI161
F3.4638784320906169
sI162
F3.4638784320906169
sI163
F3.4638784320906169
sI164
F3.4638784320906169
sI165
F3.4638784320906169
sI166
F3.4638784320906169
sI167
F3.4638784320906169
sI168
F3.4638784320906169
sI169
F3.4638784320906169
sI170
F3.4638784320906169
sI171
F3.4638784320906169
sI172
F3.4638784320906169
sI173
F3.4638784320906169
sI174
F3.4638784320906169
sI175
F3.4638784320906169
sI176
F3.4638784320906169
sI177
F3.4638784320906169
sI178
F3.4638784320906169
sI179
F3.4638784320906169
sI180
F3.4638784320906169
sI181
F3.4638784320906169
sI182
F3.4638784320906169
sI183
F3.4638784320906169
sI184
F3.4638784320906169
sI185
F3.4638784320906169
sI186
F3.4638784320906169
sI187
F3.4638784320906169
sI188
F3.4638784320906169
sI189
F3.4638784320906169
sI190
F3.4638784320906169
sI191
F3.4638784320906169
sI192
F3.4638784320906169
sI193
F3.4638784320906169
sI194
F3.4638784320906169
sI195
F3.4638784320906169
sI196
F3.4638784320906169
sI197
F3.4638784320906169
sI198
F3.4638784320906169
sI199
F3.4638784320906169
sI200
F3.4638784320906169
sI201
F3.4638784320906169
sI202
F3.4638784320906169
sI203
F3.4638784320906169
sI204
F3.4638784320906169
sI205
F3.4638784320906169
sI206
F3.4638784320906169
sI207
F3.4638784320906169
sI208
F3.4638784320906169
sI209
F3.4638784320906169
sI210
F3.4638784320906169
sI211
F3.4638784320906169
sI212
F3.4638784320906169
sI213
F3.4638784320906169
sI214
F3.4638784320906169
sI215
F3.4638784320906169
sI216
F3.4638784320906169
sI217
F3.4638784320906169
sI218
F3.4638784320906169
sI219
F3.4638784320906169
sI220
F3.4638784320906169
sI221
F3.4638784320906169
sI222
F3.4638784320906169
sI223
F3.4638784320906169
sI224
F3.4638784320906169
sI225
F3.4638784320906169
sI226
F3.4638784320906169
sI227
F3.4638784320906169
sI228
F3.4638784320906169
sI229
F3.4638784320906169
sI230
F3.4638784320906169
sI231
F3.4638784320906169
sI232
F3.4638784320906169
sI233
F3.4638784320906169
sI234
F3.4638784320906169
sI235
F3.4638784320906169
sI236
F3.4638784320906169
sI237
F3.4638784320906169
sI238
F3.4638784320906169
sI239
F3.4638784320906169
sI240
F3.4638784320906169
sI241
F3.4638784320906169
sI242
F3.4638784320906169
sI243
F3.4638784320906169
sI244
F3.4638784320906169
sI245
F3.4638784320906169
sI246
F3.4638784320906169
sI247
F3.4638784320906169
sI248
F3.4638784320906169
sI249
F3.4638784320906169
sI250
F3.4638784320906169
sI251
F3.4638784320906169
sI252
F3.4638784320906169
sI253
F3.4638784320906169
sI254
F3.4638784320906169
sI255
F3.4638784320906169
sI256
F3.4638784320906169
sI257
F3.4638784320906169
sI258
F3.4638784320906169
sI259
F3.4638784320906169
sI260
F3.4638784320906169
sI261
F3.4638784320906169
sI262
F3.4638784320906169
sI263
F3.4638784320906169
sI264
F3.4638784320906169
sI265
F3.4638784320906169
sI266
F3.4638784320906169
sI267
F3.4638784320906169
sI268
F3.4638784320906169
sI269
F3.4638784320906169
sI270
F3.4638784320906169
sI271
F3.4638784320906169
sI272
F3.4638784320906169
sI273
F3.4638784320906169
sI274
F3.4638784320906169
sI275
F3.4638784320906169
sI276
F3.4638784320906169
sI277
F3.4638784320906169
sI278
F3.4638784320906169
sI279
F3.4638784320906169
sI280
F3.4638784320906169
sI281
F3.4638784320906169
sI282
F3.4638784320906169
sI283
F3.4638784320906169
sI284
F3.4638784320906169
sI285
F3.4638784320906169
sI286
F3.4638784320906169
sI287
F3.4638784320906169
sI288
F3.4638784320906169
sI289
F3.4638784320906169
sI290
F3.4638784320906169
sI291
F3.4638784320906169
sI292
F3.4638784320906169
sI293
F3.4638784320906169
sI294
F3.4638784320906169
sI295
F3.4638784320906169
sI296
F3.4638784320906169
sI297
F3.4638784320906169
sI298
F3.4638784320906169
sI299
F3.4638784320906169
sI300
F3.4638784320906169
sI301
F3.4638784320906169
sI302
F3.4638784320906169
sI303
F3.4638784320906169
sI304
F3.4638784320906169
sI305
F3.4638784320906169
sI306
F3.4638784320906169
sI307
F3.4638784320906169
sI308
F3.4638784320906169
sI309
F3.4638784320906169
sI310
F3.4638784320906169
sI311
F3.4638784320906169
sI312
F3.4638784320906169
sI313
F3.4638784320906169
sI314
F3.4638784320906169
sI315
F3.4638784320906169
sI316
F3.4638784320906169
sI317
F3.4638784320906169
sI318
F3.4638784320906169
sI319
F3.4638784320906169
sI320
F3.4638784320906169
sI321
F3.4638784320906169
sI322
F3.4638784320906169
sI323
F3.4638784320906169
sI324
F3.4638784320906169
sI325
F3.4638784320906169
sI326
F3.4638784320906169
sI327
F3.4638784320906169
sI328
F3.4638784320906169
sI329
F3.4638784320906169
sI330
F3.4638784320906169
sI331
F3.4638784320906169
sI332
F3.4638784320906169
sI333
F3.4638784320906169
sI334
F3.4638784320906169
sI335
F3.4638784320906169
sI336
F3.4638784320906169
sI337
F3.4638784320906169
sI338
F3.4638784320906169
sI339
F3.4638784320906169
sI340
F3.4638784320906169
sI341
F3.4638784320906169
sI342
F3.4638784320906169
sI343
F3.4638784320906169
sI344
F3.4638784320906169
sI345
F3.4638784320906169
sI346
F3.4638784320906169
sI347
F3.4638784320906169
sI348
F3.4638784320906169
sI349
F3.4638784320906169
sI350
F3.4638784320906169
sI351
F3.4638784320906169
sI352
F3.4638784320906169
sI353
F3.4638784320906169
sI354
F3.4638784320906169
sI355
F3.4638784320906169
sI356
F3.4638784320906169
sI357
F3.4638784320906169
sI358
F3.4638784320906169
sI359
F3.4638784320906169
sI360
F3.4638784320906169
sI361
F3.4638784320906169
sI362
F3.4638784320906169
sI363
F3.4638784320906169
sI364
F3.4638784320906169
sI365
F3.4638784320906169
sI366
F3.4638784320906169
sI367
F3.4638784320906169
sI368
F3.4638784320906169
sI369
F3.4638784320906169
sI370
F3.4638784320906169
sI371
F3.4638784320906169
sI372
F3.4638784320906169
sI373
F3.4638784320906169
sI374
F3.4638784320906169
sI375
F3.4638784320906169
sI376
F3.4638784320906169
sI377
F3.4638784320906169
sI378
F3.4638784320906169
sI379
F3.4638784320906169
sI380
F3.4638784320906169
sI381
F3.4638784320906169
sI382
F3.4638784320906169
sI383
F3.4638784320906169
sI384
F3.4638784320906169
sI385
F3.4638784320906169
sI386
F3.4638784320906169
sI387
F3.4638784320906169
sI388
F3.4638784320906169
sI389
F3.4638784320906169
sI390
F3.4638784320906169
sI391
F3.4638784320906169
sI392
F3.4638784320906169
sI393
F3.4638784320906169
sI394
F3.4638784320906169
sI395
F3.4638784320906169
sI396
F3.4638784320906169
sI397
F3.4638784320906169
sI398
F3.4638784320906169
sI399
F3.4638784320906169
sI400
F3.4638784320906169
sI401
F3.4638784320906169
sI402
F3.4638784320906169
sI403
F3.4638784320906169
sI404
F3.4638784320906169
sI405
F3.4638784320906169
sI406
F3.4638784320906169
sI407
F3.4638784320906169
sI408
F3.4638784320906169
sI409
F3.4638784320906169
sI410
F3.4638784320906169
sI411
F3.4638784320906169
sI412
F3.4638784320906169
sI413
F3.4638784320906169
sI414
F3.4638784320906169
sI415
F3.4638784320906169
sI416
F3.4638784320906169
sI417
F3.4638784320906169
sI418
F3.4638784320906169
sI419
F3.4638784320906169
sI420
F3.4638784320906169
sI421
F3.4638784320906169
sI422
F3.4638784320906169
sI423
F3.4638784320906169
sI424
F3.4638784320906169
sI425
F3.4638784320906169
sI426
F3.4638784320906169
sI427
F3.4638784320906169
sI428
F3.4638784320906169
sI429
F3.4638784320906169
sI430
F3.4638784320906169
sI431
F3.4638784320906169
sI432
F3.4638784320906169
sI433
F3.4638784320906169
sI434
F3.4638784320906169
sI435
F3.4638784320906169
sI436
F3.4638784320906169
sI437
F3.4638784320906169
sI438
F3.4638784320906169
sI439
F3.4638784320906169
sI440
F3.4638784320906169
sI441
F3.4638784320906169
sI442
F3.4638784320906169
sI443
F3.4638784320906169
sI444
F3.4638784320906169
sI445
F3.4638784320906169
sI446
F3.4638784320906169
sI447
F3.4638784320906169
sI448
F3.4638784320906169
sI449
F3.4638784320906169
sI450
F3.4638784320906169
sI451
F3.4638784320906169
sI452
F3.4638784320906169
sI453
F3.4638784320906169
sI454
F3.4638784320906169
sI455
F3.4638784320906169
sI456
F3.4638784320906169
sI457
F3.4638784320906169
sI458
F3.4638784320906169
sI459
F3.4638784320906169
sI460
F3.4638784320906169
sI461
F3.4638784320906169
sI462
F3.4638784320906169
sI463
F3.4638784320906169
sI464
F3.4638784320906169
sI465
F3.4638784320906169
sI466
F3.4638784320906169
sI467
F3.4638784320906169
sI468
F3.4638784320906169
sI469
F3.4638784320906169
sI470
F3.4638784320906169
sI471
F3.4638784320906169
sI472
F3.4638784320906169
sI473
F3.4638784320906169
sI474
F3.4638784320906169
sI475
F3.4638784320906169
sI476
F3.4638784320906169
sI477
F3.4638784320906169
sI478
F3.4638784320906169
sI479
F3.4638784320906169
sI480
F3.4638784320906169
sI481
F3.3342156592608418
sI482
F3.3342156592608418
sI483
F3.3342156592608418
sI484
F3.3342156592608418
sI485
F3.3342156592608418
sI486
F3.3342156592608418
sI487
F3.3342156592608418
sI488
F3.3342156592608418
sI489
F3.3342156592608418
sI490
F3.3342156592608418
sI491
F3.3342156592608418
sI492
F3.3342156592608418
sI493
F3.3342156592608418
sI494
F3.3342156592608418
sI495
F3.3342156592608418
sI496
F3.3342156592608418
sI497
F3.3342156592608418
sI498
F3.3342156592608418
sI499
F3.3342156592608418
sI500
F3.3342156592608418
sI501
F3.3342156592608418
sI502
F3.3342156592608418
sI503
F3.3342156592608418
sI504
F3.3342156592608418
sI505
F3.3342156592608418
sI506
F3.3342156592608418
sI507
F3.3342156592608418
sI508
F3.3342156592608418
sI509
F3.3342156592608418
sI510
F3.3342156592608418
sI511
F3.3342156592608418
sI512
F3.3342156592608418
sI513
F3.3342156592608418
sI514
F3.3342156592608418
sI515
F3.3342156592608418
sI516
F3.3342156592608418
sI517
F3.3342156592608418
sI518
F3.3342156592608418
sI519
F3.3342156592608418
sI520
F3.3342156592608418
sI521
F3.3342156592608418
sI522
F3.3342156592608418
sI523
F3.3342156592608418
sI524
F3.3342156592608418
sI525
F3.3342156592608418
sI526
F3.3342156592608418
sI527
F3.3342156592608418
sI528
F3.3342156592608418
sI529
F3.3342156592608418
sI530
F3.3342156592608418
sI531
F3.3342156592608418
sI532
F3.3342156592608418
sI533
F3.3342156592608418
sI534
F3.3342156592608418
sI535
F3.3342156592608418
sI536
F3.3342156592608418
sI537
F3.3342156592608418
sI538
F3.3342156592608418
sI539
F3.3342156592608418
sI540
F3.3342156592608418
sI541
F3.3342156592608418
sI542
F3.3342156592608418
sI543
F3.3342156592608418
sI544
F3.3342156592608418
sI545
F3.3342156592608418
sI546
F3.3342156592608418
sI547
F3.3342156592608418
sI548
F3.3342156592608418
sI549
F3.3342156592608418
sI550
F3.3342156592608418
sI551
F3.3342156592608418
sI552
F3.3342156592608418
sI553
F3.3342156592608418
sI554
F3.3342156592608418
sI555
F3.3342156592608418
sI556
F3.3342156592608418
sI557
F3.3342156592608418
sI558
F3.3342156592608418
sI559
F3.3342156592608418
sI560
F3.3342156592608418
sI561
F3.3342156592608418
sI562
F3.3342156592608418
sI563
F3.3342156592608418
sI564
F3.3342156592608418
sI565
F3.3342156592608418
sI566
F3.3342156592608418
sI567
F3.3342156592608418
sI568
F3.3342156592608418
sI569
F3.3342156592608418
sI570
F3.3342156592608418
sI571
F3.3342156592608418
sI572
F3.3342156592608418
sI573
F3.3342156592608418
sI574
F3.3342156592608418
sI575
F3.3342156592608418
sI576
F3.3342156592608418
sI577
F3.3342156592608418
sI578
F3.3342156592608418
sI579
F3.3342156592608418
sI580
F3.3342156592608418
sI581
F3.3342156592608418
sI582
F3.3342156592608418
sI583
F3.3342156592608418
sI584
F3.3342156592608418
sI585
F3.3342156592608418
sI586
F3.3342156592608418
sI587
F3.3342156592608418
sI588
F3.3342156592608418
sI589
F3.3342156592608418
sI590
F3.3342156592608418
sI591
F3.3342156592608418
sI592
F3.3342156592608418
sI593
F3.3342156592608418
sI594
F3.3342156592608418
sI595
F3.3342156592608418
sI596
F3.3342156592608418
sI597
F3.3342156592608418
sI598
F3.3342156592608418
sI599
F3.3342156592608418
sI600
F3.3342156592608418
sI601
F3.3342156592608418
sI602
F3.3342156592608418
sI603
F3.3342156592608418
sI604
F3.3342156592608418
sI605
F3.3342156592608418
sI606
F3.3342156592608418
sI607
F3.3342156592608418
sI608
F3.3342156592608418
sI609
F3.3342156592608418
sI610
F3.3342156592608418
sI611
F3.3342156592608418
sI612
F3.3342156592608418
sI613
F3.3342156592608418
sa(dp3
I1
F3556.4930160859453
sI2
F1605.5157495251549
sI3
F1605.5157495251549
sI4
F1605.5157495251549
sI5
F1605.5157495251549
sI6
F776.38128651610577
sI7
F776.38128651610577
sI8
F776.38128651610577
sI9
F776.38128651610577
sI10
F776.38128651610577
sI11
F776.38128651610577
sI12
F776.38128651610577
sI13
F776.38128651610577
sI14
F776.38128651610577
sI15
F776.38128651610577
sI16
F776.38128651610577
sI17
F776.38128651610577
sI18
F776.38128651610577
sI19
F776.38128651610577
sI20
F776.38128651610577
sI21
F776.38128651610577
sI22
F776.38128651610577
sI23
F776.38128651610577
sI24
F776.38128651610577
sI25
F776.38128651610577
sI26
F776.38128651610577
sI27
F776.38128651610577
sI28
F20.463377678965333
sI29
F20.463377678965333
sI30
F20.463377678965333
sI31
F20.463377678965333
sI32
F20.463377678965333
sI33
F20.463377678965333
sI34
F20.463377678965333
sI35
F20.463377678965333
sI36
F20.463377678965333
sI37
F20.463377678965333
sI38
F20.463377678965333
sI39
F20.463377678965333
sI40
F20.463377678965333
sI41
F20.463377678965333
sI42
F20.463377678965333
sI43
F20.463377678965333
sI44
F20.463377678965333
sI45
F20.463377678965333
sI46
F20.463377678965333
sI47
F20.463377678965333
sI48
F20.463377678965333
sI49
F20.463377678965333
sI50
F20.463377678965333
sI51
F20.463377678965333
sI52
F20.463377678965333
sI53
F20.463377678965333
sI54
F20.463377678965333
sI55
F20.463377678965333
sI56
F20.463377678965333
sI57
F20.463377678965333
sI58
F20.463377678965333
sI59
F20.463377678965333
sI60
F20.463377678965333
sI61
F20.463377678965333
sI62
F20.463377678965333
sI63
F20.463377678965333
sI64
F20.463377678965333
sI65
F20.463377678965333
sI66
F20.463377678965333
sI67
F20.463377678965333
sI68
F20.463377678965333
sI69
F20.463377678965333
sI70
F20.463377678965333
sI71
F20.463377678965333
sI72
F20.463377678965333
sI73
F20.463377678965333
sI74
F20.463377678965333
sI75
F20.463377678965333
sI76
F20.463377678965333
sI77
F20.463377678965333
sI78
F20.463377678965333
sI79
F20.463377678965333
sI80
F20.463377678965333
sI81
F20.463377678965333
sI82
F20.463377678965333
sI83
F20.463377678965333
sI84
F20.463377678965333
sI85
F20.463377678965333
sI86
F20.463377678965333
sI87
F20.463377678965333
sI88
F20.463377678965333
sI89
F20.463377678965333
sI90
F20.463377678965333
sI91
F20.463377678965333
sI92
F20.463377678965333
sI93
F20.463377678965333
sI94
F20.463377678965333
sI95
F20.463377678965333
sI96
F20.463377678965333
sI97
F20.463377678965333
sI98
F20.463377678965333
sI99
F20.463377678965333
sI100
F20.463377678965333
sI101
F20.463377678965333
sI102
F20.463377678965333
sI103
F20.463377678965333
sI104
F20.463377678965333
sI105
F20.463377678965333
sI106
F20.463377678965333
sI107
F20.463377678965333
sI108
F20.463377678965333
sI109
F20.463377678965333
sI110
F20.463377678965333
sI111
F20.463377678965333
sI112
F20.463377678965333
sI113
F20.463377678965333
sI114
F20.463377678965333
sI115
F20.463377678965333
sI116
F20.463377678965333
sI117
F20.463377678965333
sI118
F20.463377678965333
sI119
F20.463377678965333
sI120
F20.463377678965333
sI121
F20.463377678965333
sI122
F20.463377678965333
sI123
F20.463377678965333
sI124
F20.463377678965333
sI125
F20.463377678965333
sI126
F20.463377678965333
sI127
F20.463377678965333
sI128
F20.463377678965333
sI129
F20.463377678965333
sI130
F20.463377678965333
sI131
F20.463377678965333
sI132
F20.463377678965333
sI133
F20.463377678965333
sI134
F20.463377678965333
sI135
F20.463377678965333
sI136
F20.463377678965333
sI137
F20.463377678965333
sI138
F20.463377678965333
sI139
F20.463377678965333
sI140
F20.463377678965333
sI141
F20.463377678965333
sI142
F20.463377678965333
sI143
F20.463377678965333
sI144
F20.463377678965333
sI145
F20.463377678965333
sI146
F20.463377678965333
sI147
F20.463377678965333
sI148
F20.463377678965333
sI149
F20.463377678965333
sI150
F20.463377678965333
sI151
F20.463377678965333
sI152
F20.463377678965333
sI153
F20.463377678965333
sI154
F20.463377678965333
sI155
F20.463377678965333
sI156
F20.463377678965333
sI157
F20.463377678965333
sI158
F20.463377678965333
sI159
F20.463377678965333
sI160
F20.463377678965333
sI161
F20.463377678965333
sI162
F20.463377678965333
sI163
F20.463377678965333
sI164
F20.463377678965333
sI165
F20.463377678965333
sI166
F20.463377678965333
sI167
F20.463377678965333
sI168
F20.463377678965333
sI169
F20.463377678965333
sI170
F20.463377678965333
sI171
F20.463377678965333
sI172
F20.463377678965333
sI173
F20.463377678965333
sI174
F20.463377678965333
sI175
F20.463377678965333
sI176
F20.463377678965333
sI177
F20.463377678965333
sI178
F20.463377678965333
sI179
F20.463377678965333
sI180
F20.463377678965333
sI181
F20.463377678965333
sI182
F20.463377678965333
sI183
F20.463377678965333
sI184
F20.463377678965333
sI185
F20.463377678965333
sI186
F20.463377678965333
sI187
F20.463377678965333
sI188
F20.463377678965333
sI189
F20.463377678965333
sI190
F20.463377678965333
sI191
F20.463377678965333
sI192
F20.463377678965333
sI193
F20.463377678965333
sI194
F20.463377678965333
sI195
F20.463377678965333
sI196
F20.463377678965333
sI197
F20.463377678965333
sI198
F20.463377678965333
sI199
F20.463377678965333
sI200
F20.463377678965333
sI201
F20.463377678965333
sI202
F20.463377678965333
sI203
F20.463377678965333
sI204
F20.463377678965333
sI205
F20.463377678965333
sI206
F20.463377678965333
sI207
F20.463377678965333
sI208
F20.463377678965333
sI209
F20.463377678965333
sI210
F20.463377678965333
sI211
F20.463377678965333
sI212
F20.463377678965333
sI213
F20.463377678965333
sI214
F20.463377678965333
sI215
F20.463377678965333
sI216
F20.463377678965333
sI217
F20.463377678965333
sI218
F20.463377678965333
sI219
F20.463377678965333
sI220
F20.463377678965333
sI221
F20.463377678965333
sI222
F20.463377678965333
sI223
F20.463377678965333
sI224
F20.463377678965333
sI225
F20.463377678965333
sI226
F20.463377678965333
sI227
F20.463377678965333
sI228
F20.463377678965333
sI229
F20.463377678965333
sI230
F20.463377678965333
sI231
F20.463377678965333
sI232
F20.463377678965333
sI233
F20.463377678965333
sI234
F20.463377678965333
sI235
F20.463377678965333
sI236
F20.463377678965333
sI237
F20.463377678965333
sI238
F20.463377678965333
sI239
F20.463377678965333
sI240
F20.463377678965333
sI241
F20.463377678965333
sI242
F20.463377678965333
sI243
F20.463377678965333
sI244
F20.463377678965333
sI245
F20.463377678965333
sI246
F20.463377678965333
sI247
F20.463377678965333
sI248
F20.463377678965333
sI249
F20.463377678965333
sI250
F20.463377678965333
sI251
F20.463377678965333
sI252
F20.463377678965333
sI253
F20.463377678965333
sI254
F20.463377678965333
sI255
F20.463377678965333
sI256
F20.463377678965333
sI257
F20.463377678965333
sI258
F20.463377678965333
sI259
F20.463377678965333
sI260
F20.463377678965333
sI261
F20.463377678965333
sI262
F20.463377678965333
sI263
F20.463377678965333
sI264
F20.463377678965333
sI265
F20.463377678965333
sI266
F20.463377678965333
sI267
F20.463377678965333
sI268
F20.463377678965333
sI269
F20.463377678965333
sI270
F20.463377678965333
sI271
F20.463377678965333
sI272
F20.463377678965333
sI273
F20.463377678965333
sI274
F20.463377678965333
sI275
F20.463377678965333
sI276
F20.463377678965333
sI277
F20.463377678965333
sI278
F20.463377678965333
sI279
F20.463377678965333
sI280
F20.463377678965333
sI281
F20.463377678965333
sI282
F20.463377678965333
sI283
F20.463377678965333
sI284
F20.463377678965333
sI285
F20.463377678965333
sI286
F20.463377678965333
sI287
F20.463377678965333
sI288
F20.463377678965333
sI289
F20.463377678965333
sI290
F20.463377678965333
sI291
F20.463377678965333
sI292
F20.463377678965333
sI293
F20.463377678965333
sI294
F20.463377678965333
sI295
F20.463377678965333
sI296
F20.463377678965333
sI297
F20.463377678965333
sI298
F20.463377678965333
sI299
F20.463377678965333
sI300
F20.463377678965333
sI301
F20.463377678965333
sI302
F20.463377678965333
sI303
F20.463377678965333
sI304
F20.463377678965333
sI305
F20.463377678965333
sI306
F20.463377678965333
sI307
F20.463377678965333
sI308
F20.463377678965333
sI309
F20.463377678965333
sI310
F20.463377678965333
sI311
F20.463377678965333
sI312
F20.463377678965333
sI313
F20.463377678965333
sI314
F20.463377678965333
sI315
F20.463377678965333
sI316
F20.463377678965333
sI317
F20.463377678965333
sI318
F20.463377678965333
sI319
F20.463377678965333
sI320
F20.463377678965333
sI321
F20.463377678965333
sI322
F20.463377678965333
sI323
F20.463377678965333
sI324
F20.463377678965333
sI325
F20.463377678965333
sI326
F20.463377678965333
sI327
F20.463377678965333
sI328
F20.463377678965333
sI329
F20.463377678965333
sI330
F20.463377678965333
sI331
F20.463377678965333
sI332
F20.463377678965333
sI333
F20.463377678965333
sI334
F20.463377678965333
sI335
F20.463377678965333
sI336
F20.463377678965333
sI337
F20.463377678965333
sI338
F20.463377678965333
sI339
F20.463377678965333
sI340
F20.463377678965333
sI341
F20.463377678965333
sI342
F20.463377678965333
sI343
F20.463377678965333
sI344
F20.463377678965333
sI345
F20.463377678965333
sI346
F20.463377678965333
sI347
F20.463377678965333
sI348
F20.463377678965333
sI349
F20.463377678965333
sI350
F20.463377678965333
sI351
F20.463377678965333
sI352
F20.463377678965333
sI353
F20.463377678965333
sI354
F20.463377678965333
sI355
F20.463377678965333
sI356
F20.463377678965333
sI357
F20.463377678965333
sI358
F20.463377678965333
sI359
F20.463377678965333
sI360
F20.463377678965333
sI361
F20.463377678965333
sI362
F20.463377678965333
sI363
F20.463377678965333
sI364
F20.463377678965333
sI365
F20.463377678965333
sI366
F20.463377678965333
sI367
F20.463377678965333
sI368
F20.463377678965333
sI369
F20.463377678965333
sI370
F20.463377678965333
sI371
F20.463377678965333
sI372
F20.463377678965333
sI373
F20.463377678965333
sI374
F20.463377678965333
sI375
F20.463377678965333
sI376
F20.463377678965333
sI377
F20.463377678965333
sI378
F20.463377678965333
sI379
F20.463377678965333
sI380
F20.463377678965333
sI381
F20.463377678965333
sI382
F20.463377678965333
sI383
F20.463377678965333
sI384
F20.463377678965333
sI385
F20.463377678965333
sI386
F20.463377678965333
sI387
F20.463377678965333
sI388
F20.463377678965333
sI389
F20.463377678965333
sI390
F20.463377678965333
sI391
F20.463377678965333
sI392
F20.463377678965333
sI393
F20.463377678965333
sI394
F20.463377678965333
sI395
F20.463377678965333
sI396
F20.463377678965333
sI397
F20.463377678965333
sI398
F20.463377678965333
sI399
F20.463377678965333
sI400
F20.463377678965333
sI401
F20.463377678965333
sI402
F20.463377678965333
sI403
F20.463377678965333
sI404
F20.463377678965333
sI405
F20.463377678965333
sI406
F20.463377678965333
sI407
F20.463377678965333
sI408
F20.463377678965333
sI409
F20.463377678965333
sI410
F20.463377678965333
sI411
F20.463377678965333
sI412
F20.463377678965333
sI413
F20.463377678965333
sI414
F20.463377678965333
sI415
F20.463377678965333
sI416
F20.463377678965333
sI417
F20.463377678965333
sI418
F20.463377678965333
sI419
F20.463377678965333
sI420
F20.463377678965333
sI421
F20.463377678965333
sI422
F20.463377678965333
sI423
F20.463377678965333
sI424
F20.463377678965333
sI425
F20.463377678965333
sI426
F20.463377678965333
sI427
F20.463377678965333
sI428
F20.463377678965333
sI429
F20.463377678965333
sI430
F20.463377678965333
sI431
F20.463377678965333
sI432
F20.463377678965333
sI433
F20.463377678965333
sI434
F20.463377678965333
sI435
F20.463377678965333
sI436
F20.463377678965333
sI437
F20.463377678965333
sI438
F20.463377678965333
sI439
F20.463377678965333
sI440
F20.463377678965333
sI441
F20.463377678965333
sI442
F20.463377678965333
sI443
F20.463377678965333
sI444
F20.463377678965333
sI445
F20.463377678965333
sI446
F20.463377678965333
sI447
F20.463377678965333
sI448
F20.463377678965333
sI449
F20.463377678965333
sI450
F20.463377678965333
sI451
F20.463377678965333
sI452
F20.463377678965333
sI453
F20.463377678965333
sI454
F20.463377678965333
sI455
F20.463377678965333
sI456
F20.463377678965333
sI457
F20.463377678965333
sI458
F20.463377678965333
sI459
F20.463377678965333
sI460
F20.463377678965333
sI461
F20.463377678965333
sI462
F20.463377678965333
sI463
F20.463377678965333
sI464
F20.463377678965333
sI465
F20.463377678965333
sI466
F20.463377678965333
sI467
F20.463377678965333
sI468
F20.463377678965333
sI469
F20.463377678965333
sI470
F20.463377678965333
sI471
F20.463377678965333
sI472
F20.463377678965333
sI473
F20.463377678965333
sI474
F20.463377678965333
sI475
F20.463377678965333
sI476
F20.463377678965333
sI477
F20.463377678965333
sI478
F20.463377678965333
sI479
F20.463377678965333
sI480
F20.463377678965333
sI481
F20.463377678965333
sI482
F20.463377678965333
sI483
F20.463377678965333
sI484
F20.463377678965333
sI485
F20.463377678965333
sI486
F20.463377678965333
sI487
F20.463377678965333
sI488
F20.463377678965333
sI489
F20.463377678965333
sI490
F20.463377678965333
sI491
F20.463377678965333
sI492
F20.463377678965333
sI493
F20.463377678965333
sI494
F20.463377678965333
sI495
F20.463377678965333
sI496
F20.463377678965333
sI497
F20.463377678965333
sI498
F20.463377678965333
sI499
F20.463377678965333
sI500
F20.463377678965333
sI501
F20.463377678965333
sI502
F20.463377678965333
sI503
F20.463377678965333
sI504
F20.463377678965333
sI505
F20.463377678965333
sI506
F20.463377678965333
sI507
F20.463377678965333
sI508
F20.463377678965333
sI509
F20.463377678965333
sI510
F20.463377678965333
sI511
F20.463377678965333
sI512
F20.463377678965333
sI513
F20.463377678965333
sI514
F20.463377678965333
sI515
F20.463377678965333
sI516
F20.463377678965333
sI517
F20.463377678965333
sI518
F20.463377678965333
sI519
F20.463377678965333
sI520
F20.463377678965333
sI521
F20.463377678965333
sI522
F20.463377678965333
sI523
F20.463377678965333
sI524
F20.463377678965333
sI525
F20.463377678965333
sI526
F20.463377678965333
sI527
F20.463377678965333
sI528
F20.463377678965333
sI529
F20.463377678965333
sI530
F20.463377678965333
sI531
F20.463377678965333
sI532
F20.463377678965333
sI533
F20.463377678965333
sI534
F20.463377678965333
sI535
F20.463377678965333
sI536
F20.463377678965333
sI537
F20.463377678965333
sI538
F20.463377678965333
sI539
F20.463377678965333
sI540
F20.463377678965333
sI541
F20.463377678965333
sI542
F20.463377678965333
sI543
F20.463377678965333
sI544
F20.463377678965333
sI545
F20.463377678965333
sI546
F20.463377678965333
sI547
F20.463377678965333
sI548
F20.463377678965333
sI549
F20.463377678965333
sI550
F20.463377678965333
sI551
F20.463377678965333
sI552
F20.463377678965333
sI553
F20.463377678965333
sI554
F20.463377678965333
sI555
F20.463377678965333
sI556
F20.463377678965333
sI557
F20.463377678965333
sI558
F20.463377678965333
sI559
F20.463377678965333
sI560
F20.463377678965333
sI561
F20.463377678965333
sI562
F20.463377678965333
sI563
F20.463377678965333
sI564
F20.463377678965333
sI565
F20.463377678965333
sI566
F20.463377678965333
sI567
F20.463377678965333
sI568
F20.463377678965333
sI569
F20.463377678965333
sI570
F20.463377678965333
sI571
F20.463377678965333
sI572
F20.463377678965333
sI573
F20.463377678965333
sI574
F20.463377678965333
sI575
F20.463377678965333
sI576
F20.463377678965333
sI577
F20.463377678965333
sI578
F20.463377678965333
sI579
F20.463377678965333
sI580
F20.463377678965333
sI581
F20.463377678965333
sI582
F20.463377678965333
sI583
F20.463377678965333
sI584
F20.463377678965333
sI585
F20.463377678965333
sI586
F20.463377678965333
sI587
F20.463377678965333
sI588
F20.463377678965333
sI589
F20.463377678965333
sI590
F20.463377678965333
sI591
F20.463377678965333
sI592
F20.463377678965333
sI593
F20.463377678965333
sI594
F20.463377678965333
sa(dp4
I1
F2204.2845783493181
sI2
F2204.2845783493181
sI3
F1632.1417746080501
sI4
F757.0040648087861
sI5
F82.224606368759282
sI6
F82.224606368759282
sI7
F82.224606368759282
sI8
F82.224606368759282
sI9
F82.224606368759282
sI10
F82.224606368759282
sI11
F82.224606368759282
sI12
F82.224606368759282
sI13
F82.224606368759282
sI14
F82.224606368759282
sI15
F82.224606368759282
sI16
F82.224606368759282
sI17
F82.224606368759282
sI18
F82.224606368759282
sI19
F82.224606368759282
sI20
F82.224606368759282
sI21
F82.224606368759282
sI22
F82.224606368759282
sI23
F82.224606368759282
sI24
F82.224606368759282
sI25
F82.224606368759282
sI26
F82.224606368759282
sI27
F82.224606368759282
sI28
F82.224606368759282
sI29
F82.224606368759282
sI30
F82.224606368759282
sI31
F82.224606368759282
sI32
F82.224606368759282
sI33
F82.224606368759282
sI34
F82.224606368759282
sI35
F82.224606368759282
sI36
F43.521878771652922
sI37
F43.521878771652922
sI38
F43.521878771652922
sI39
F43.521878771652922
sI40
F43.521878771652922
sI41
F43.521878771652922
sI42
F43.521878771652922
sI43
F43.521878771652922
sI44
F43.521878771652922
sI45
F43.521878771652922
sI46
F43.521878771652922
sI47
F43.521878771652922
sI48
F43.521878771652922
sI49
F43.521878771652922
sI50
F43.521878771652922
sI51
F43.521878771652922
sI52
F43.521878771652922
sI53
F43.521878771652922
sI54
F43.521878771652922
sI55
F43.521878771652922
sI56
F43.521878771652922
sI57
F43.521878771652922
sI58
F43.521878771652922
sI59
F43.521878771652922
sI60
F43.521878771652922
sI61
F43.521878771652922
sI62
F43.521878771652922
sI63
F43.521878771652922
sI64
F43.521878771652922
sI65
F43.521878771652922
sI66
F43.521878771652922
sI67
F43.521878771652922
sI68
F43.521878771652922
sI69
F43.521878771652922
sI70
F43.521878771652922
sI71
F43.521878771652922
sI72
F43.521878771652922
sI73
F43.521878771652922
sI74
F43.521878771652922
sI75
F43.521878771652922
sI76
F43.521878771652922
sI77
F43.521878771652922
sI78
F43.521878771652922
sI79
F43.521878771652922
sI80
F43.521878771652922
sI81
F43.521878771652922
sI82
F43.521878771652922
sI83
F43.521878771652922
sI84
F43.521878771652922
sI85
F43.521878771652922
sI86
F43.521878771652922
sI87
F43.521878771652922
sI88
F43.521878771652922
sI89
F43.521878771652922
sI90
F43.521878771652922
sI91
F43.521878771652922
sI92
F43.521878771652922
sI93
F43.521878771652922
sI94
F43.521878771652922
sI95
F43.521878771652922
sI96
F43.521878771652922
sI97
F43.521878771652922
sI98
F43.521878771652922
sI99
F43.521878771652922
sI100
F43.521878771652922
sI101
F43.521878771652922
sI102
F43.521878771652922
sI103
F43.521878771652922
sI104
F43.521878771652922
sI105
F43.521878771652922
sI106
F43.521878771652922
sI107
F43.521878771652922
sI108
F43.521878771652922
sI109
F43.521878771652922
sI110
F43.521878771652922
sI111
F43.521878771652922
sI112
F43.521878771652922
sI113
F43.521878771652922
sI114
F43.521878771652922
sI115
F43.521878771652922
sI116
F43.521878771652922
sI117
F43.521878771652922
sI118
F43.521878771652922
sI119
F43.521878771652922
sI120
F43.521878771652922
sI121
F43.521878771652922
sI122
F43.521878771652922
sI123
F43.521878771652922
sI124
F43.521878771652922
sI125
F43.521878771652922
sI126
F43.521878771652922
sI127
F43.521878771652922
sI128
F43.521878771652922
sI129
F43.521878771652922
sI130
F43.521878771652922
sI131
F43.521878771652922
sI132
F43.521878771652922
sI133
F43.521878771652922
sI134
F43.521878771652922
sI135
F43.521878771652922
sI136
F43.521878771652922
sI137
F43.521878771652922
sI138
F43.521878771652922
sI139
F43.521878771652922
sI140
F43.521878771652922
sI141
F43.521878771652922
sI142
F43.521878771652922
sI143
F43.521878771652922
sI144
F43.521878771652922
sI145
F43.521878771652922
sI146
F43.521878771652922
sI147
F43.521878771652922
sI148
F43.521878771652922
sI149
F43.521878771652922
sI150
F43.521878771652922
sI151
F43.521878771652922
sI152
F43.521878771652922
sI153
F43.521878771652922
sI154
F43.521878771652922
sI155
F43.521878771652922
sI156
F43.521878771652922
sI157
F43.521878771652922
sI158
F43.521878771652922
sI159
F43.521878771652922
sI160
F43.521878771652922
sI161
F43.521878771652922
sI162
F43.521878771652922
sI163
F43.521878771652922
sI164
F43.521878771652922
sI165
F43.521878771652922
sI166
F43.521878771652922
sI167
F43.521878771652922
sI168
F43.521878771652922
sI169
F43.521878771652922
sI170
F43.521878771652922
sI171
F43.521878771652922
sI172
F43.521878771652922
sI173
F43.521878771652922
sI174
F43.521878771652922
sI175
F43.521878771652922
sI176
F43.521878771652922
sI177
F43.521878771652922
sI178
F43.521878771652922
sI179
F43.521878771652922
sI180
F43.521878771652922
sI181
F43.521878771652922
sI182
F43.521878771652922
sI183
F43.521878771652922
sI184
F43.521878771652922
sI185
F43.521878771652922
sI186
F43.521878771652922
sI187
F43.521878771652922
sI188
F43.521878771652922
sI189
F43.521878771652922
sI190
F43.521878771652922
sI191
F43.521878771652922
sI192
F43.521878771652922
sI193
F43.521878771652922
sI194
F43.521878771652922
sI195
F43.521878771652922
sI196
F43.521878771652922
sI197
F43.521878771652922
sI198
F43.521878771652922
sI199
F43.521878771652922
sI200
F43.521878771652922
sI201
F43.521878771652922
sI202
F43.521878771652922
sI203
F43.521878771652922
sI204
F43.521878771652922
sI205
F43.521878771652922
sI206
F43.521878771652922
sI207
F43.521878771652922
sI208
F43.521878771652922
sI209
F2.9002369978003983
sI210
F2.9002369978003983
sI211
F2.9002369978003983
sI212
F2.9002369978003983
sI213
F2.9002369978003983
sI214
F2.9002369978003983
sI215
F2.9002369978003983
sI216
F2.9002369978003983
sI217
F2.9002369978003983
sI218
F2.9002369978003983
sI219
F2.9002369978003983
sI220
F2.9002369978003983
sI221
F2.9002369978003983
sI222
F2.9002369978003983
sI223
F2.9002369978003983
sI224
F2.9002369978003983
sI225
F2.9002369978003983
sI226
F2.9002369978003983
sI227
F2.9002369978003983
sI228
F2.9002369978003983
sI229
F2.9002369978003983
sI230
F2.9002369978003983
sI231
F2.9002369978003983
sI232
F2.9002369978003983
sI233
F2.9002369978003983
sI234
F2.9002369978003983
sI235
F2.9002369978003983
sI236
F2.9002369978003983
sI237
F2.9002369978003983
sI238
F2.9002369978003983
sI239
F2.9002369978003983
sI240
F2.9002369978003983
sI241
F2.9002369978003983
sI242
F2.9002369978003983
sI243
F2.9002369978003983
sI244
F2.9002369978003983
sI245
F2.9002369978003983
sI246
F2.9002369978003983
sI247
F2.9002369978003983
sI248
F2.9002369978003983
sI249
F2.9002369978003983
sI250
F2.9002369978003983
sI251
F2.9002369978003983
sI252
F2.9002369978003983
sI253
F2.9002369978003983
sI254
F2.9002369978003983
sI255
F2.9002369978003983
sI256
F2.9002369978003983
sI257
F2.9002369978003983
sI258
F2.9002369978003983
sI259
F2.9002369978003983
sI260
F2.9002369978003983
sI261
F2.9002369978003983
sI262
F2.9002369978003983
sI263
F2.9002369978003983
sI264
F2.9002369978003983
sI265
F2.9002369978003983
sI266
F2.9002369978003983
sI267
F2.9002369978003983
sI268
F2.9002369978003983
sI269
F2.9002369978003983
sI270
F2.9002369978003983
sI271
F2.9002369978003983
sI272
F2.9002369978003983
sI273
F2.9002369978003983
sI274
F2.9002369978003983
sI275
F2.9002369978003983
sI276
F2.9002369978003983
sI277
F2.9002369978003983
sI278
F2.9002369978003983
sI279
F2.9002369978003983
sI280
F2.9002369978003983
sI281
F2.9002369978003983
sI282
F2.9002369978003983
sI283
F2.9002369978003983
sI284
F2.9002369978003983
sI285
F2.9002369978003983
sI286
F2.9002369978003983
sI287
F2.9002369978003983
sI288
F2.9002369978003983
sI289
F2.9002369978003983
sI290
F2.9002369978003983
sI291
F2.9002369978003983
sI292
F2.9002369978003983
sI293
F2.9002369978003983
sI294
F2.9002369978003983
sI295
F2.9002369978003983
sI296
F2.9002369978003983
sI297
F2.9002369978003983
sI298
F2.9002369978003983
sI299
F2.9002369978003983
sI300
F2.9002369978003983
sI301
F2.9002369978003983
sI302
F2.9002369978003983
sI303
F2.9002369978003983
sI304
F2.9002369978003983
sI305
F2.9002369978003983
sI306
F2.9002369978003983
sI307
F2.9002369978003983
sI308
F2.9002369978003983
sI309
F2.9002369978003983
sI310
F2.9002369978003983
sI311
F2.9002369978003983
sI312
F2.9002369978003983
sI313
F2.9002369978003983
sI314
F2.9002369978003983
sI315
F2.9002369978003983
sI316
F2.9002369978003983
sI317
F2.9002369978003983
sI318
F2.9002369978003983
sI319
F2.9002369978003983
sI320
F2.9002369978003983
sI321
F2.9002369978003983
sI322
F2.9002369978003983
sI323
F2.9002369978003983
sI324
F2.9002369978003983
sI325
F2.9002369978003983
sI326
F2.9002369978003983
sI327
F2.9002369978003983
sI328
F2.9002369978003983
sI329
F2.9002369978003983
sI330
F2.9002369978003983
sI331
F2.9002369978003983
sI332
F2.9002369978003983
sI333
F2.9002369978003983
sI334
F2.9002369978003983
sI335
F2.9002369978003983
sI336
F2.9002369978003983
sI337
F2.9002369978003983
sI338
F2.9002369978003983
sI339
F2.9002369978003983
sI340
F2.9002369978003983
sI341
F2.9002369978003983
sI342
F2.9002369978003983
sI343
F2.9002369978003983
sI344
F2.9002369978003983
sI345
F2.9002369978003983
sI346
F2.9002369978003983
sI347
F2.9002369978003983
sI348
F2.9002369978003983
sI349
F2.9002369978003983
sI350
F2.9002369978003983
sI351
F2.9002369978003983
sI352
F2.9002369978003983
sI353
F2.9002369978003983
sI354
F2.9002369978003983
sI355
F2.9002369978003983
sI356
F2.9002369978003983
sI357
F2.9002369978003983
sI358
F2.9002369978003983
sI359
F2.9002369978003983
sI360
F2.9002369978003983
sI361
F2.9002369978003983
sI362
F2.9002369978003983
sI363
F2.9002369978003983
sI364
F2.9002369978003983
sI365
F2.9002369978003983
sI366
F2.9002369978003983
sI367
F2.9002369978003983
sI368
F2.9002369978003983
sI369
F2.9002369978003983
sI370
F2.9002369978003983
sI371
F2.9002369978003983
sI372
F2.9002369978003983
sI373
F2.9002369978003983
sI374
F2.9002369978003983
sI375
F2.9002369978003983
sI376
F2.9002369978003983
sI377
F2.9002369978003983
sI378
F2.9002369978003983
sI379
F2.9002369978003983
sI380
F2.9002369978003983
sI381
F2.9002369978003983
sI382
F2.9002369978003983
sI383
F2.9002369978003983
sI384
F2.9002369978003983
sI385
F2.9002369978003983
sI386
F2.9002369978003983
sI387
F2.9002369978003983
sI388
F2.9002369978003983
sI389
F2.9002369978003983
sI390
F2.9002369978003983
sI391
F2.9002369978003983
sI392
F2.9002369978003983
sI393
F2.9002369978003983
sI394
F2.9002369978003983
sI395
F2.9002369978003983
sI396
F2.9002369978003983
sI397
F2.9002369978003983
sI398
F2.9002369978003983
sI399
F2.9002369978003983
sI400
F2.9002369978003983
sI401
F2.9002369978003983
sI402
F2.9002369978003983
sI403
F2.9002369978003983
sI404
F2.9002369978003983
sI405
F2.9002369978003983
sI406
F2.9002369978003983
sI407
F2.9002369978003983
sI408
F2.9002369978003983
sI409
F2.9002369978003983
sI410
F2.9002369978003983
sI411
F2.9002369978003983
sI412
F2.9002369978003983
sI413
F2.9002369978003983
sI414
F2.9002369978003983
sI415
F2.9002369978003983
sI416
F2.9002369978003983
sI417
F2.9002369978003983
sI418
F2.9002369978003983
sI419
F2.9002369978003983
sI420
F2.9002369978003983
sI421
F2.9002369978003983
sI422
F2.9002369978003983
sI423
F2.9002369978003983
sI424
F2.9002369978003983
sI425
F2.9002369978003983
sI426
F2.9002369978003983
sI427
F2.9002369978003983
sI428
F2.9002369978003983
sI429
F2.9002369978003983
sI430
F2.9002369978003983
sI431
F2.9002369978003983
sI432
F2.9002369978003983
sI433
F2.9002369978003983
sI434
F2.9002369978003983
sI435
F2.9002369978003983
sI436
F2.9002369978003983
sI437
F2.9002369978003983
sI438
F2.9002369978003983
sI439
F2.9002369978003983
sI440
F2.9002369978003983
sI441
F2.9002369978003983
sI442
F2.9002369978003983
sI443
F2.9002369978003983
sI444
F2.9002369978003983
sI445
F2.9002369978003983
sI446
F2.9002369978003983
sI447
F2.9002369978003983
sI448
F2.9002369978003983
sI449
F2.9002369978003983
sI450
F2.9002369978003983
sI451
F2.9002369978003983
sI452
F2.9002369978003983
sI453
F2.9002369978003983
sI454
F2.9002369978003983
sI455
F2.9002369978003983
sI456
F2.9002369978003983
sI457
F2.9002369978003983
sI458
F2.9002369978003983
sI459
F2.9002369978003983
sI460
F2.9002369978003983
sI461
F2.9002369978003983
sI462
F2.9002369978003983
sI463
F2.9002369978003983
sI464
F2.9002369978003983
sI465
F2.9002369978003983
sI466
F2.9002369978003983
sI467
F2.9002369978003983
sI468
F2.9002369978003983
sI469
F2.9002369978003983
sI470
F2.9002369978003983
sI471
F2.9002369978003983
sI472
F2.9002369978003983
sI473
F2.9002369978003983
sI474
F2.9002369978003983
sI475
F2.9002369978003983
sI476
F2.9002369978003983
sI477
F2.9002369978003983
sI478
F2.9002369978003983
sI479
F2.9002369978003983
sI480
F2.9002369978003983
sI481
F2.9002369978003983
sI482
F2.9002369978003983
sI483
F2.9002369978003983
sI484
F2.9002369978003983
sI485
F2.9002369978003983
sI486
F2.9002369978003983
sI487
F2.9002369978003983
sI488
F2.9002369978003983
sI489
F2.9002369978003983
sI490
F2.9002369978003983
sI491
F2.9002369978003983
sI492
F2.9002369978003983
sI493
F2.9002369978003983
sI494
F2.9002369978003983
sI495
F2.9002369978003983
sI496
F2.9002369978003983
sI497
F2.9002369978003983
sI498
F2.9002369978003983
sI499
F2.9002369978003983
sI500
F2.9002369978003983
sI501
F2.9002369978003983
sI502
F2.9002369978003983
sI503
F2.9002369978003983
sI504
F2.9002369978003983
sI505
F2.9002369978003983
sI506
F2.9002369978003983
sI507
F2.9002369978003983
sI508
F2.9002369978003983
sI509
F2.9002369978003983
sI510
F2.9002369978003983
sI511
F2.9002369978003983
sI512
F2.9002369978003983
sI513
F2.9002369978003983
sI514
F2.9002369978003983
sI515
F2.9002369978003983
sI516
F2.9002369978003983
sI517
F2.9002369978003983
sI518
F2.9002369978003983
sI519
F2.9002369978003983
sI520
F2.9002369978003983
sI521
F2.9002369978003983
sI522
F2.9002369978003983
sI523
F2.9002369978003983
sI524
F2.9002369978003983
sI525
F2.9002369978003983
sI526
F2.9002369978003983
sI527
F2.9002369978003983
sI528
F2.9002369978003983
sI529
F2.9002369978003983
sI530
F2.9002369978003983
sI531
F2.9002369978003983
sI532
F2.9002369978003983
sI533
F2.9002369978003983
sI534
F2.9002369978003983
sI535
F2.9002369978003983
sI536
F2.9002369978003983
sI537
F2.9002369978003983
sI538
F2.9002369978003983
sI539
F2.9002369978003983
sI540
F2.9002369978003983
sI541
F2.9002369978003983
sI542
F2.9002369978003983
sI543
F2.9002369978003983
sI544
F2.9002369978003983
sI545
F2.9002369978003983
sI546
F2.9002369978003983
sI547
F2.9002369978003983
sI548
F2.9002369978003983
sI549
F2.9002369978003983
sI550
F2.9002369978003983
sI551
F2.9002369978003983
sI552
F2.9002369978003983
sI553
F2.9002369978003983
sI554
F2.9002369978003983
sI555
F2.9002369978003983
sI556
F2.9002369978003983
sI557
F2.9002369978003983
sI558
F2.9002369978003983
sI559
F2.9002369978003983
sI560
F2.9002369978003983
sI561
F2.9002369978003983
sI562
F2.9002369978003983
sI563
F2.9002369978003983
sI564
F2.9002369978003983
sI565
F2.9002369978003983
sI566
F2.9002369978003983
sI567
F2.9002369978003983
sI568
F2.9002369978003983
sI569
F2.9002369978003983
sI570
F2.9002369978003983
sI571
F2.9002369978003983
sI572
F2.9002369978003983
sI573
F2.9002369978003983
sI574
F2.9002369978003983
sI575
F2.9002369978003983
sI576
F2.9002369978003983
sI577
F2.9002369978003983
sI578
F2.9002369978003983
sI579
F2.9002369978003983
sI580
F2.9002369978003983
sI581
F2.9002369978003983
sI582
F2.9002369978003983
sI583
F2.9002369978003983
sI584
F2.9002369978003983
sI585
F2.9002369978003983
sI586
F2.9002369978003983
sI587
F2.9002369978003983
sI588
F2.9002369978003983
sI589
F2.9002369978003983
sI590
F2.9002369978003983
sI591
F2.9002369978003983
sI592
F2.9002369978003983
sI593
F2.9002369978003983
sI594
F2.9002369978003983
sI595
F2.9002369978003983
sI596
F2.9002369978003983
sI597
F2.9002369978003983
sI598
F2.9002369978003983
sI599
F2.9002369978003983
sI600
F2.9002369978003983
sI601
F2.9002369978003983
sI602
F2.9002369978003983
sI603
F2.9002369978003983
sI604
F2.9002369978003983
sI605
F2.9002369978003983
sI606
F2.9002369978003983
sI607
F2.9002369978003983
sI608
F2.9002369978003983
sI609
F2.9002369978003983
sI610
F2.9002369978003983
sI611
F2.9002369978003983
sI612
F2.9002369978003983
sI613
F2.9002369978003983
sI614
F2.9002369978003983
sI615
F2.9002369978003983
sI616
F2.9002369978003983
sI617
F2.9002369978003983
sI618
F2.9002369978003983
sI619
F2.9002369978003983
sI620
F2.9002369978003983
sI621
F2.9002369978003983
sI622
F2.9002369978003983
sI623
F2.9002369978003983
sI624
F2.9002369978003983
sI625
F2.9002369978003983
sI626
F2.9002369978003983
sI627
F2.9002369978003983
sI628
F2.9002369978003983
sI629
F2.9002369978003983
sI630
F2.9002369978003983
sI631
F2.9002369978003983
sI632
F2.9002369978003983
sI633
F2.9002369978003983
sI634
F2.9002369978003983
sI635
F2.9002369978003983
sI636
F2.9002369978003983
sI637
F2.9002369978003983
sI638
F2.9002369978003983
sI639
F2.9002369978003983
sI640
F2.9002369978003983
sI641
F2.9002369978003983
sI642
F2.9002369978003983
sI643
F2.9002369978003983
sI644
F2.9002369978003983
sI645
F2.9002369978003983
sI646
F2.9002369978003983
sI647
F2.9002369978003983
sI648
F2.9002369978003983
sI649
F2.9002369978003983
sI650
F2.9002369978003983
sI651
F2.9002369978003983
sI652
F2.9002369978003983
sI653
F2.9002369978003983
sI654
F2.9002369978003983
sI655
F2.9002369978003983
sI656
F2.9002369978003983
sI657
F2.9002369978003983
sI658
F2.9002369978003983
sI659
F2.9002369978003983
sI660
F2.9002369978003983
sI661
F2.9002369978003983
sI662
F2.9002369978003983
sI663
F2.9002369978003983
sI664
F2.9002369978003983
sI665
F2.9002369978003983
sI666
F2.9002369978003983
sI667
F2.9002369978003983
sI668
F2.9002369978003983
sa(dp5
I1
F1518.4098384505708
sI2
F821.51011401391588
sI3
F821.51011401391588
sI4
F821.51011401391588
sI5
F821.51011401391588
sI6
F821.51011401391588
sI7
F303.47768219466167
sI8
F303.47768219466167
sI9
F303.47768219466167
sI10
F303.47768219466167
sI11
F303.47768219466167
sI12
F303.47768219466167
sI13
F303.47768219466167
sI14
F303.47768219466167
sI15
F303.47768219466167
sI16
F303.47768219466167
sI17
F303.47768219466167
sI18
F303.47768219466167
sI19
F303.47768219466167
sI20
F303.47768219466167
sI21
F303.47768219466167
sI22
F303.47768219466167
sI23
F303.47768219466167
sI24
F303.47768219466167
sI25
F303.47768219466167
sI26
F303.47768219466167
sI27
F303.47768219466167
sI28
F303.47768219466167
sI29
F303.47768219466167
sI30
F303.47768219466167
sI31
F303.47768219466167
sI32
F303.47768219466167
sI33
F303.47768219466167
sI34
F303.47768219466167
sI35
F303.47768219466167
sI36
F303.47768219466167
sI37
F303.47768219466167
sI38
F280.32000402467116
sI39
F280.32000402467116
sI40
F280.32000402467116
sI41
F280.32000402467116
sI42
F280.32000402467116
sI43
F280.32000402467116
sI44
F280.32000402467116
sI45
F280.32000402467116
sI46
F280.32000402467116
sI47
F280.32000402467116
sI48
F280.32000402467116
sI49
F280.32000402467116
sI50
F280.32000402467116
sI51
F280.32000402467116
sI52
F280.32000402467116
sI53
F280.32000402467116
sI54
F280.32000402467116
sI55
F280.32000402467116
sI56
F280.32000402467116
sI57
F280.32000402467116
sI58
F280.32000402467116
sI59
F280.32000402467116
sI60
F280.32000402467116
sI61
F280.32000402467116
sI62
F280.32000402467116
sI63
F280.32000402467116
sI64
F280.32000402467116
sI65
F280.32000402467116
sI66
F280.32000402467116
sI67
F280.32000402467116
sI68
F280.32000402467116
sI69
F280.32000402467116
sI70
F280.32000402467116
sI71
F280.32000402467116
sI72
F280.32000402467116
sI73
F280.32000402467116
sI74
F280.32000402467116
sI75
F280.32000402467116
sI76
F280.32000402467116
sI77
F280.32000402467116
sI78
F280.32000402467116
sI79
F280.32000402467116
sI80
F280.32000402467116
sI81
F280.32000402467116
sI82
F280.32000402467116
sI83
F280.32000402467116
sI84
F280.32000402467116
sI85
F280.32000402467116
sI86
F280.32000402467116
sI87
F280.32000402467116
sI88
F280.32000402467116
sI89
F163.72210830897239
sI90
F163.72210830897239
sI91
F163.72210830897239
sI92
F163.72210830897239
sI93
F163.72210830897239
sI94
F163.72210830897239
sI95
F163.72210830897239
sI96
F163.72210830897239
sI97
F163.72210830897239
sI98
F163.72210830897239
sI99
F163.72210830897239
sI100
F163.72210830897239
sI101
F163.72210830897239
sI102
F163.72210830897239
sI103
F163.72210830897239
sI104
F163.72210830897239
sI105
F163.72210830897239
sI106
F163.72210830897239
sI107
F163.72210830897239
sI108
F163.72210830897239
sI109
F163.72210830897239
sI110
F163.72210830897239
sI111
F163.72210830897239
sI112
F163.72210830897239
sI113
F163.72210830897239
sI114
F163.72210830897239
sI115
F163.72210830897239
sI116
F163.72210830897239
sI117
F163.72210830897239
sI118
F163.72210830897239
sI119
F163.72210830897239
sI120
F163.72210830897239
sI121
F163.72210830897239
sI122
F163.72210830897239
sI123
F163.72210830897239
sI124
F163.72210830897239
sI125
F163.72210830897239
sI126
F163.72210830897239
sI127
F163.72210830897239
sI128
F163.72210830897239
sI129
F163.72210830897239
sI130
F163.72210830897239
sI131
F163.72210830897239
sI132
F163.72210830897239
sI133
F163.72210830897239
sI134
F163.72210830897239
sI135
F163.72210830897239
sI136
F163.72210830897239
sI137
F163.72210830897239
sI138
F163.72210830897239
sI139
F163.72210830897239
sI140
F163.72210830897239
sI141
F163.72210830897239
sI142
F163.72210830897239
sI143
F163.72210830897239
sI144
F163.72210830897239
sI145
F163.72210830897239
sI146
F163.72210830897239
sI147
F163.72210830897239
sI148
F163.72210830897239
sI149
F163.72210830897239
sI150
F163.72210830897239
sI151
F163.72210830897239
sI152
F163.72210830897239
sI153
F163.72210830897239
sI154
F163.72210830897239
sI155
F163.72210830897239
sI156
F163.72210830897239
sI157
F163.72210830897239
sI158
F163.72210830897239
sI159
F163.72210830897239
sI160
F163.72210830897239
sI161
F163.72210830897239
sI162
F163.72210830897239
sI163
F163.72210830897239
sI164
F163.72210830897239
sI165
F163.72210830897239
sI166
F163.72210830897239
sI167
F163.72210830897239
sI168
F163.72210830897239
sI169
F163.72210830897239
sI170
F163.72210830897239
sI171
F163.72210830897239
sI172
F163.72210830897239
sI173
F163.72210830897239
sI174
F163.72210830897239
sI175
F163.72210830897239
sI176
F163.72210830897239
sI177
F163.72210830897239
sI178
F163.72210830897239
sI179
F163.72210830897239
sI180
F163.72210830897239
sI181
F163.72210830897239
sI182
F163.72210830897239
sI183
F163.72210830897239
sI184
F163.72210830897239
sI185
F163.72210830897239
sI186
F163.72210830897239
sI187
F163.72210830897239
sI188
F163.72210830897239
sI189
F163.72210830897239
sI190
F163.72210830897239
sI191
F163.72210830897239
sI192
F163.72210830897239
sI193
F163.72210830897239
sI194
F163.72210830897239
sI195
F163.72210830897239
sI196
F163.72210830897239
sI197
F163.72210830897239
sI198
F163.72210830897239
sI199
F163.72210830897239
sI200
F163.72210830897239
sI201
F163.72210830897239
sI202
F163.72210830897239
sI203
F163.72210830897239
sI204
F163.72210830897239
sI205
F163.72210830897239
sI206
F163.72210830897239
sI207
F163.72210830897239
sI208
F163.72210830897239
sI209
F163.72210830897239
sI210
F163.72210830897239
sI211
F163.72210830897239
sI212
F163.72210830897239
sI213
F163.72210830897239
sI214
F163.72210830897239
sI215
F163.72210830897239
sI216
F163.72210830897239
sI217
F163.72210830897239
sI218
F163.72210830897239
sI219
F163.72210830897239
sI220
F163.72210830897239
sI221
F163.72210830897239
sI222
F163.72210830897239
sI223
F163.72210830897239
sI224
F163.72210830897239
sI225
F163.72210830897239
sI226
F163.72210830897239
sI227
F163.72210830897239
sI228
F163.72210830897239
sI229
F163.72210830897239
sI230
F163.72210830897239
sI231
F163.72210830897239
sI232
F163.72210830897239
sI233
F163.72210830897239
sI234
F163.72210830897239
sI235
F163.72210830897239
sI236
F163.72210830897239
sI237
F163.72210830897239
sI238
F163.72210830897239
sI239
F163.72210830897239
sI240
F163.72210830897239
sI241
F163.72210830897239
sI242
F163.72210830897239
sI243
F163.72210830897239
sI244
F163.72210830897239
sI245
F163.72210830897239
sI246
F163.72210830897239
sI247
F163.72210830897239
sI248
F163.72210830897239
sI249
F163.72210830897239
sI250
F163.72210830897239
sI251
F163.72210830897239
sI252
F163.72210830897239
sI253
F163.72210830897239
sI254
F163.72210830897239
sI255
F163.72210830897239
sI256
F163.72210830897239
sI257
F163.72210830897239
sI258
F163.72210830897239
sI259
F163.72210830897239
sI260
F163.72210830897239
sI261
F163.72210830897239
sI262
F163.72210830897239
sI263
F163.72210830897239
sI264
F163.72210830897239
sI265
F163.72210830897239
sI266
F163.72210830897239
sI267
F163.72210830897239
sI268
F163.72210830897239
sI269
F163.72210830897239
sI270
F163.72210830897239
sI271
F163.72210830897239
sI272
F163.72210830897239
sI273
F163.72210830897239
sI274
F163.72210830897239
sI275
F163.72210830897239
sI276
F163.72210830897239
sI277
F163.72210830897239
sI278
F163.72210830897239
sI279
F163.72210830897239
sI280
F163.72210830897239
sI281
F163.72210830897239
sI282
F104.69722213317655
sI283
F104.69722213317655
sI284
F104.69722213317655
sI285
F104.69722213317655
sI286
F104.69722213317655
sI287
F104.69722213317655
sI288
F104.69722213317655
sI289
F104.69722213317655
sI290
F104.69722213317655
sI291
F104.69722213317655
sI292
F104.69722213317655
sI293
F104.69722213317655
sI294
F104.69722213317655
sI295
F104.69722213317655
sI296
F104.69722213317655
sI297
F104.69722213317655
sI298
F104.69722213317655
sI299
F104.69722213317655
sI300
F104.69722213317655
sI301
F104.69722213317655
sI302
F104.69722213317655
sI303
F104.69722213317655
sI304
F104.69722213317655
sI305
F104.69722213317655
sI306
F104.69722213317655
sI307
F104.69722213317655
sI308
F104.69722213317655
sI309
F104.69722213317655
sI310
F104.69722213317655
sI311
F104.69722213317655
sI312
F104.69722213317655
sI313
F104.69722213317655
sI314
F104.69722213317655
sI315
F104.69722213317655
sI316
F70.496231988566024
sI317
F70.496231988566024
sI318
F70.496231988566024
sI319
F70.496231988566024
sI320
F70.496231988566024
sI321
F70.496231988566024
sI322
F70.496231988566024
sI323
F70.496231988566024
sI324
F70.496231988566024
sI325
F70.496231988566024
sI326
F70.496231988566024
sI327
F70.496231988566024
sI328
F70.496231988566024
sI329
F27.452667416484331
sI330
F27.452667416484331
sI331
F27.452667416484331
sI332
F27.452667416484331
sI333
F27.452667416484331
sI334
F27.452667416484331
sI335
F27.452667416484331
sI336
F27.452667416484331
sI337
F27.452667416484331
sI338
F27.452667416484331
sI339
F27.452667416484331
sI340
F27.452667416484331
sI341
F27.452667416484331
sI342
F27.452667416484331
sI343
F27.452667416484331
sI344
F27.452667416484331
sI345
F27.452667416484331
sI346
F27.452667416484331
sI347
F27.452667416484331
sI348
F27.452667416484331
sI349
F27.452667416484331
sI350
F27.452667416484331
sI351
F27.452667416484331
sI352
F27.452667416484331
sI353
F27.452667416484331
sI354
F27.452667416484331
sI355
F27.452667416484331
sI356
F27.452667416484331
sI357
F27.452667416484331
sI358
F27.452667416484331
sI359
F27.452667416484331
sI360
F27.452667416484331
sI361
F27.452667416484331
sI362
F27.452667416484331
sI363
F27.452667416484331
sI364
F27.452667416484331
sI365
F27.452667416484331
sI366
F27.452667416484331
sI367
F27.452667416484331
sI368
F27.452667416484331
sI369
F27.452667416484331
sI370
F27.452667416484331
sI371
F27.452667416484331
sI372
F27.452667416484331
sI373
F27.452667416484331
sI374
F27.452667416484331
sI375
F27.452667416484331
sI376
F27.452667416484331
sI377
F27.452667416484331
sI378
F27.452667416484331
sI379
F27.452667416484331
sI380
F27.452667416484331
sI381
F27.452667416484331
sI382
F27.452667416484331
sI383
F27.452667416484331
sI384
F27.452667416484331
sI385
F27.452667416484331
sI386
F27.452667416484331
sI387
F27.452667416484331
sI388
F27.452667416484331
sI389
F27.452667416484331
sI390
F27.452667416484331
sI391
F27.452667416484331
sI392
F27.452667416484331
sI393
F27.452667416484331
sI394
F27.452667416484331
sI395
F27.452667416484331
sI396
F27.452667416484331
sI397
F27.452667416484331
sI398
F27.452667416484331
sI399
F27.452667416484331
sI400
F27.452667416484331
sI401
F27.452667416484331
sI402
F27.452667416484331
sI403
F27.452667416484331
sI404
F27.452667416484331
sI405
F27.452667416484331
sI406
F27.452667416484331
sI407
F27.452667416484331
sI408
F27.452667416484331
sI409
F27.452667416484331
sI410
F27.452667416484331
sI411
F27.452667416484331
sI412
F27.452667416484331
sI413
F27.452667416484331
sI414
F27.452667416484331
sI415
F27.452667416484331
sI416
F27.452667416484331
sI417
F27.452667416484331
sI418
F27.452667416484331
sI419
F27.452667416484331
sI420
F27.452667416484331
sI421
F27.452667416484331
sI422
F27.452667416484331
sI423
F27.452667416484331
sI424
F27.452667416484331
sI425
F27.452667416484331
sI426
F27.452667416484331
sI427
F27.452667416484331
sI428
F27.452667416484331
sI429
F27.452667416484331
sI430
F27.452667416484331
sI431
F27.452667416484331
sI432
F27.452667416484331
sI433
F27.452667416484331
sI434
F27.452667416484331
sI435
F27.452667416484331
sI436
F27.452667416484331
sI437
F27.452667416484331
sI438
F27.452667416484331
sI439
F27.452667416484331
sI440
F27.452667416484331
sI441
F27.452667416484331
sI442
F27.452667416484331
sI443
F27.452667416484331
sI444
F27.452667416484331
sI445
F27.452667416484331
sI446
F27.452667416484331
sI447
F27.452667416484331
sI448
F27.452667416484331
sI449
F27.452667416484331
sI450
F27.452667416484331
sI451
F27.452667416484331
sI452
F27.452667416484331
sI453
F27.452667416484331
sI454
F27.452667416484331
sI455
F27.452667416484331
sI456
F27.452667416484331
sI457
F27.452667416484331
sI458
F27.452667416484331
sI459
F27.452667416484331
sI460
F27.452667416484331
sI461
F27.452667416484331
sI462
F27.452667416484331
sI463
F27.452667416484331
sI464
F27.452667416484331
sI465
F27.452667416484331
sI466
F27.452667416484331
sI467
F27.452667416484331
sI468
F27.452667416484331
sI469
F27.452667416484331
sI470
F27.452667416484331
sI471
F27.452667416484331
sI472
F27.452667416484331
sI473
F27.452667416484331
sI474
F27.452667416484331
sI475
F27.452667416484331
sI476
F27.452667416484331
sI477
F27.452667416484331
sI478
F27.452667416484331
sI479
F27.452667416484331
sI480
F27.452667416484331
sI481
F27.452667416484331
sI482
F27.452667416484331
sI483
F27.452667416484331
sI484
F27.452667416484331
sI485
F27.452667416484331
sI486
F27.452667416484331
sI487
F27.452667416484331
sI488
F27.452667416484331
sI489
F27.452667416484331
sI490
F27.452667416484331
sI491
F27.452667416484331
sI492
F27.452667416484331
sI493
F27.452667416484331
sI494
F27.452667416484331
sI495
F27.452667416484331
sI496
F27.452667416484331
sI497
F27.452667416484331
sI498
F27.452667416484331
sI499
F27.452667416484331
sI500
F27.452667416484331
sI501
F27.452667416484331
sI502
F27.452667416484331
sI503
F27.452667416484331
sI504
F27.452667416484331
sI505
F27.452667416484331
sI506
F27.452667416484331
sI507
F27.452667416484331
sI508
F27.452667416484331
sI509
F27.452667416484331
sI510
F27.452667416484331
sI511
F27.452667416484331
sI512
F27.452667416484331
sI513
F27.452667416484331
sI514
F27.452667416484331
sI515
F27.452667416484331
sI516
F27.452667416484331
sI517
F27.452667416484331
sI518
F27.452667416484331
sI519
F27.452667416484331
sI520
F27.452667416484331
sI521
F27.452667416484331
sI522
F27.452667416484331
sI523
F27.452667416484331
sI524
F27.452667416484331
sI525
F27.452667416484331
sI526
F27.452667416484331
sI527
F27.452667416484331
sI528
F27.452667416484331
sI529
F27.452667416484331
sI530
F27.452667416484331
sI531
F27.452667416484331
sI532
F27.452667416484331
sI533
F27.452667416484331
sI534
F27.452667416484331
sI535
F27.452667416484331
sI536
F27.452667416484331
sI537
F27.452667416484331
sI538
F27.452667416484331
sI539
F27.452667416484331
sI540
F27.452667416484331
sI541
F27.452667416484331
sI542
F27.452667416484331
sI543
F27.452667416484331
sI544
F27.452667416484331
sI545
F27.452667416484331
sI546
F27.452667416484331
sI547
F27.452667416484331
sI548
F27.452667416484331
sI549
F27.452667416484331
sI550
F27.452667416484331
sI551
F27.452667416484331
sI552
F27.452667416484331
sI553
F27.452667416484331
sI554
F27.452667416484331
sI555
F27.452667416484331
sI556
F27.452667416484331
sI557
F27.452667416484331
sI558
F27.452667416484331
sI559
F27.452667416484331
sI560
F27.452667416484331
sI561
F27.452667416484331
sI562
F27.452667416484331
sI563
F27.452667416484331
sI564
F27.452667416484331
sI565
F27.452667416484331
sI566
F27.452667416484331
sI567
F27.452667416484331
sI568
F27.452667416484331
sI569
F27.452667416484331
sI570
F27.452667416484331
sI571
F27.452667416484331
sI572
F27.452667416484331
sI573
F27.452667416484331
sI574
F27.452667416484331
sI575
F27.452667416484331
sI576
F27.452667416484331
sI577
F27.452667416484331
sI578
F27.452667416484331
sI579
F27.452667416484331
sI580
F27.452667416484331
sI581
F27.452667416484331
sI582
F27.452667416484331
sI583
F27.452667416484331
sI584
F27.452667416484331
sI585
F27.452667416484331
sI586
F27.452667416484331
sI587
F27.452667416484331
sI588
F27.452667416484331
sI589
F27.452667416484331
sI590
F27.452667416484331
sI591
F27.452667416484331
sI592
F27.452667416484331
sI593
F27.452667416484331
sI594
F27.452667416484331
sI595
F27.452667416484331
sI596
F27.452667416484331
sI597
F27.452667416484331
sI598
F27.452667416484331
sI599
F27.452667416484331
sI600
F27.452667416484331
sI601
F27.452667416484331
sI602
F27.452667416484331
sI603
F27.452667416484331
sI604
F27.452667416484331
sI605
F27.452667416484331
sI606
F27.452667416484331
sI607
F27.452667416484331
sI608
F27.452667416484331
sI609
F27.452667416484331
sI610
F27.452667416484331
sI611
F27.452667416484331
sI612
F27.452667416484331
sI613
F27.452667416484331
sI614
F27.452667416484331
sI615
F27.452667416484331
sI616
F27.452667416484331
sI617
F27.452667416484331
sI618
F27.452667416484331
sI619
F27.452667416484331
sI620
F27.452667416484331
sI621
F27.452667416484331
sI622
F27.452667416484331
sI623
F27.452667416484331
sI624
F27.452667416484331
sI625
F27.452667416484331
sI626
F27.452667416484331
sI627
F27.452667416484331
sI628
F27.452667416484331
sI629
F27.452667416484331
sI630
F27.452667416484331
sI631
F27.452667416484331
sI632
F27.452667416484331
sI633
F27.452667416484331
sI634
F27.452667416484331
sI635
F27.452667416484331
sI636
F27.452667416484331
sI637
F27.452667416484331
sI638
F27.452667416484331
sI639
F27.452667416484331
sI640
F27.452667416484331
sI641
F27.452667416484331
sI642
F27.452667416484331
sI643
F27.452667416484331
sI644
F27.452667416484331
sI645
F27.452667416484331
sI646
F27.452667416484331
sI647
F27.452667416484331
sI648
F27.452667416484331
sI649
F27.452667416484331
sI650
F27.452667416484331
sI651
F27.452667416484331
sI652
F27.452667416484331
sI653
F27.452667416484331
sI654
F27.452667416484331
sI655
F27.452667416484331
sI656
F27.452667416484331
sI657
F27.452667416484331
sI658
F27.452667416484331
sI659
F27.452667416484331
sI660
F27.452667416484331
sI661
F27.452667416484331
sI662
F27.452667416484331
sI663
F27.452667416484331
sI664
F27.452667416484331
sI665
F27.452667416484331
sI666
F27.452667416484331
sI667
F27.452667416484331
sI668
F27.452667416484331
sI669
F27.452667416484331
sI670
F27.452667416484331
sI671
F27.452667416484331
sI672
F27.452667416484331
sI673
F27.452667416484331
sI674
F27.452667416484331
sI675
F27.452667416484331
sI676
F27.452667416484331
sI677
F27.452667416484331
sI678
F27.452667416484331
sI679
F27.452667416484331
sI680
F27.452667416484331
sa(dp6
I1
F3963.3623088054583
sI2
F3963.3623088054583
sI3
F3963.3623088054583
sI4
F3829.4593044976923
sI5
F3829.4593044976923
sI6
F3829.4593044976923
sI7
F3628.1231256071346
sI8
F3628.1231256071346
sI9
F3628.1231256071346
sI10
F1411.5293585164357
sI11
F1411.5293585164357
sI12
F1411.5293585164357
sI13
F663.77509059133422
sI14
F663.77509059133422
sI15
F663.77509059133422
sI16
F663.77509059133422
sI17
F663.77509059133422
sI18
F663.77509059133422
sI19
F663.77509059133422
sI20
F663.77509059133422
sI21
F663.77509059133422
sI22
F663.77509059133422
sI23
F663.77509059133422
sI24
F663.77509059133422
sI25
F663.77509059133422
sI26
F663.77509059133422
sI27
F663.77509059133422
sI28
F663.77509059133422
sI29
F663.77509059133422
sI30
F663.77509059133422
sI31
F663.77509059133422
sI32
F663.77509059133422
sI33
F663.77509059133422
sI34
F663.77509059133422
sI35
F663.77509059133422
sI36
F663.77509059133422
sI37
F663.77509059133422
sI38
F663.77509059133422
sI39
F663.77509059133422
sI40
F663.77509059133422
sI41
F663.77509059133422
sI42
F663.77509059133422
sI43
F663.77509059133422
sI44
F663.77509059133422
sI45
F663.77509059133422
sI46
F663.77509059133422
sI47
F663.77509059133422
sI48
F663.77509059133422
sI49
F663.77509059133422
sI50
F663.77509059133422
sI51
F663.77509059133422
sI52
F663.77509059133422
sI53
F663.77509059133422
sI54
F663.77509059133422
sI55
F663.77509059133422
sI56
F663.77509059133422
sI57
F663.77509059133422
sI58
F663.77509059133422
sI59
F663.77509059133422
sI60
F663.77509059133422
sI61
F150.589490755626
sI62
F150.589490755626
sI63
F150.589490755626
sI64
F150.589490755626
sI65
F150.589490755626
sI66
F150.589490755626
sI67
F150.589490755626
sI68
F150.589490755626
sI69
F150.589490755626
sI70
F150.589490755626
sI71
F150.589490755626
sI72
F150.589490755626
sI73
F150.589490755626
sI74
F150.589490755626
sI75
F150.589490755626
sI76
F150.589490755626
sI77
F150.589490755626
sI78
F150.589490755626
sI79
F150.589490755626
sI80
F150.589490755626
sI81
F150.589490755626
sI82
F150.589490755626
sI83
F150.589490755626
sI84
F150.589490755626
sI85
F150.589490755626
sI86
F150.589490755626
sI87
F150.589490755626
sI88
F150.589490755626
sI89
F150.589490755626
sI90
F150.589490755626
sI91
F150.589490755626
sI92
F150.589490755626
sI93
F150.589490755626
sI94
F150.589490755626
sI95
F150.589490755626
sI96
F150.589490755626
sI97
F150.589490755626
sI98
F150.589490755626
sI99
F150.589490755626
sI100
F150.589490755626
sI101
F150.589490755626
sI102
F150.589490755626
sI103
F150.589490755626
sI104
F150.589490755626
sI105
F150.589490755626
sI106
F150.589490755626
sI107
F150.589490755626
sI108
F150.589490755626
sI109
F150.589490755626
sI110
F150.589490755626
sI111
F150.589490755626
sI112
F150.589490755626
sI113
F150.589490755626
sI114
F150.589490755626
sI115
F150.589490755626
sI116
F150.589490755626
sI117
F150.589490755626
sI118
F150.589490755626
sI119
F150.589490755626
sI120
F150.589490755626
sI121
F150.589490755626
sI122
F150.589490755626
sI123
F150.589490755626
sI124
F150.589490755626
sI125
F150.589490755626
sI126
F150.589490755626
sI127
F150.589490755626
sI128
F150.589490755626
sI129
F37.270109844104169
sI130
F37.270109844104169
sI131
F37.270109844104169
sI132
F37.270109844104169
sI133
F37.270109844104169
sI134
F37.270109844104169
sI135
F37.270109844104169
sI136
F37.270109844104169
sI137
F37.270109844104169
sI138
F37.270109844104169
sI139
F37.270109844104169
sI140
F37.270109844104169
sI141
F37.270109844104169
sI142
F37.270109844104169
sI143
F37.270109844104169
sI144
F37.270109844104169
sI145
F37.270109844104169
sI146
F37.270109844104169
sI147
F37.270109844104169
sI148
F37.270109844104169
sI149
F37.270109844104169
sI150
F37.270109844104169
sI151
F37.270109844104169
sI152
F37.270109844104169
sI153
F37.270109844104169
sI154
F37.270109844104169
sI155
F37.270109844104169
sI156
F37.270109844104169
sI157
F37.270109844104169
sI158
F37.270109844104169
sI159
F37.270109844104169
sI160
F37.270109844104169
sI161
F37.270109844104169
sI162
F37.270109844104169
sI163
F37.270109844104169
sI164
F37.270109844104169
sI165
F37.270109844104169
sI166
F37.270109844104169
sI167
F37.270109844104169
sI168
F37.270109844104169
sI169
F37.270109844104169
sI170
F37.270109844104169
sI171
F37.270109844104169
sI172
F37.270109844104169
sI173
F37.270109844104169
sI174
F37.270109844104169
sI175
F37.270109844104169
sI176
F37.270109844104169
sI177
F37.270109844104169
sI178
F37.270109844104169
sI179
F37.270109844104169
sI180
F37.270109844104169
sI181
F37.270109844104169
sI182
F37.270109844104169
sI183
F37.270109844104169
sI184
F37.270109844104169
sI185
F37.270109844104169
sI186
F37.270109844104169
sI187
F37.270109844104169
sI188
F37.270109844104169
sI189
F37.270109844104169
sI190
F37.270109844104169
sI191
F37.270109844104169
sI192
F37.270109844104169
sI193
F37.270109844104169
sI194
F37.270109844104169
sI195
F37.270109844104169
sI196
F37.270109844104169
sI197
F37.270109844104169
sI198
F37.270109844104169
sI199
F37.270109844104169
sI200
F37.270109844104169
sI201
F37.270109844104169
sI202
F37.270109844104169
sI203
F37.270109844104169
sI204
F37.270109844104169
sI205
F37.270109844104169
sI206
F37.270109844104169
sI207
F37.270109844104169
sI208
F37.270109844104169
sI209
F37.270109844104169
sI210
F37.270109844104169
sI211
F37.270109844104169
sI212
F37.270109844104169
sI213
F37.270109844104169
sI214
F37.270109844104169
sI215
F37.270109844104169
sI216
F37.270109844104169
sI217
F37.270109844104169
sI218
F37.270109844104169
sI219
F37.270109844104169
sI220
F37.270109844104169
sI221
F37.270109844104169
sI222
F37.270109844104169
sI223
F37.270109844104169
sI224
F37.270109844104169
sI225
F37.270109844104169
sI226
F37.270109844104169
sI227
F37.270109844104169
sI228
F37.270109844104169
sI229
F37.270109844104169
sI230
F37.270109844104169
sI231
F37.270109844104169
sI232
F37.270109844104169
sI233
F37.270109844104169
sI234
F37.270109844104169
sI235
F37.270109844104169
sI236
F37.270109844104169
sI237
F37.270109844104169
sI238
F37.270109844104169
sI239
F37.270109844104169
sI240
F37.270109844104169
sI241
F37.270109844104169
sI242
F37.270109844104169
sI243
F37.270109844104169
sI244
F37.270109844104169
sI245
F37.270109844104169
sI246
F37.270109844104169
sI247
F37.270109844104169
sI248
F37.270109844104169
sI249
F37.270109844104169
sI250
F37.270109844104169
sI251
F37.270109844104169
sI252
F37.270109844104169
sI253
F37.270109844104169
sI254
F37.270109844104169
sI255
F37.270109844104169
sI256
F37.270109844104169
sI257
F37.270109844104169
sI258
F37.270109844104169
sI259
F37.270109844104169
sI260
F37.270109844104169
sI261
F37.270109844104169
sI262
F37.270109844104169
sI263
F37.270109844104169
sI264
F37.270109844104169
sI265
F37.270109844104169
sI266
F37.270109844104169
sI267
F37.270109844104169
sI268
F37.270109844104169
sI269
F37.270109844104169
sI270
F37.270109844104169
sI271
F37.270109844104169
sI272
F37.270109844104169
sI273
F37.270109844104169
sI274
F37.270109844104169
sI275
F37.270109844104169
sI276
F37.270109844104169
sI277
F37.270109844104169
sI278
F37.270109844104169
sI279
F37.270109844104169
sI280
F37.270109844104169
sI281
F37.270109844104169
sI282
F37.270109844104169
sI283
F37.270109844104169
sI284
F37.270109844104169
sI285
F37.270109844104169
sI286
F37.270109844104169
sI287
F37.270109844104169
sI288
F37.270109844104169
sI289
F37.270109844104169
sI290
F37.270109844104169
sI291
F37.270109844104169
sI292
F37.270109844104169
sI293
F37.270109844104169
sI294
F37.270109844104169
sI295
F37.270109844104169
sI296
F37.270109844104169
sI297
F37.270109844104169
sI298
F37.270109844104169
sI299
F37.270109844104169
sI300
F37.270109844104169
sI301
F37.270109844104169
sI302
F37.270109844104169
sI303
F37.270109844104169
sI304
F37.270109844104169
sI305
F37.270109844104169
sI306
F37.270109844104169
sI307
F37.270109844104169
sI308
F37.270109844104169
sI309
F37.270109844104169
sI310
F37.270109844104169
sI311
F37.270109844104169
sI312
F37.270109844104169
sI313
F37.270109844104169
sI314
F37.270109844104169
sI315
F37.270109844104169
sI316
F37.270109844104169
sI317
F37.270109844104169
sI318
F37.270109844104169
sI319
F37.270109844104169
sI320
F0.86506554121346113
sI321
F0.86506554121346113
sI322
F0.86506554121346113
sI323
F0.86506554121346113
sI324
F0.86506554121346113
sI325
F0.86506554121346113
sI326
F0.86506554121346113
sI327
F0.86506554121346113
sI328
F0.86506554121346113
sI329
F0.86506554121346113
sI330
F0.86506554121346113
sI331
F0.86506554121346113
sI332
F0.86506554121346113
sI333
F0.86506554121346113
sI334
F0.86506554121346113
sI335
F0.86506554121346113
sI336
F0.86506554121346113
sI337
F0.86506554121346113
sI338
F0.86506554121346113
sI339
F0.86506554121346113
sI340
F0.86506554121346113
sI341
F0.86506554121346113
sI342
F0.86506554121346113
sI343
F0.86506554121346113
sI344
F0.86506554121346113
sI345
F0.86506554121346113
sI346
F0.86506554121346113
sI347
F0.86506554121346113
sI348
F0.86506554121346113
sI349
F0.86506554121346113
sI350
F0.86506554121346113
sI351
F0.86506554121346113
sI352
F0.86506554121346113
sI353
F0.86506554121346113
sI354
F0.86506554121346113
sI355
F0.86506554121346113
sI356
F0.86506554121346113
sI357
F0.86506554121346113
sI358
F0.86506554121346113
sI359
F0.86506554121346113
sI360
F0.86506554121346113
sI361
F0.86506554121346113
sI362
F0.86506554121346113
sI363
F0.86506554121346113
sI364
F0.86506554121346113
sI365
F0.86506554121346113
sI366
F0.86506554121346113
sI367
F0.86506554121346113
sI368
F0.86506554121346113
sI369
F0.86506554121346113
sI370
F0.86506554121346113
sI371
F0.86506554121346113
sI372
F0.86506554121346113
sI373
F0.86506554121346113
sI374
F0.86506554121346113
sI375
F0.86506554121346113
sI376
F0.86506554121346113
sI377
F0.86506554121346113
sI378
F0.86506554121346113
sI379
F0.86506554121346113
sI380
F0.86506554121346113
sI381
F0.86506554121346113
sI382
F0.86506554121346113
sI383
F0.86506554121346113
sI384
F0.86506554121346113
sI385
F0.86506554121346113
sI386
F0.86506554121346113
sI387
F0.86506554121346113
sI388
F0.86506554121346113
sI389
F0.86506554121346113
sI390
F0.86506554121346113
sI391
F0.86506554121346113
sI392
F0.86506554121346113
sI393
F0.86506554121346113
sI394
F0.86506554121346113
sI395
F0.86506554121346113
sI396
F0.86506554121346113
sI397
F0.86506554121346113
sI398
F0.86506554121346113
sI399
F0.86506554121346113
sI400
F0.86506554121346113
sI401
F0.86506554121346113
sI402
F0.86506554121346113
sI403
F0.86506554121346113
sI404
F0.86506554121346113
sI405
F0.86506554121346113
sI406
F0.86506554121346113
sI407
F0.86506554121346113
sI408
F0.86506554121346113
sI409
F0.86506554121346113
sI410
F0.86506554121346113
sI411
F0.86506554121346113
sI412
F0.86506554121346113
sI413
F0.86506554121346113
sI414
F0.86506554121346113
sI415
F0.86506554121346113
sI416
F0.86506554121346113
sI417
F0.86506554121346113
sI418
F0.86506554121346113
sI419
F0.86506554121346113
sI420
F0.86506554121346113
sI421
F0.86506554121346113
sI422
F0.86506554121346113
sI423
F0.86506554121346113
sI424
F0.86506554121346113
sI425
F0.86506554121346113
sI426
F0.86506554121346113
sI427
F0.86506554121346113
sI428
F0.86506554121346113
sI429
F0.86506554121346113
sI430
F0.86506554121346113
sI431
F0.86506554121346113
sI432
F0.86506554121346113
sI433
F0.86506554121346113
sI434
F0.86506554121346113
sI435
F0.86506554121346113
sI436
F0.86506554121346113
sI437
F0.86506554121346113
sI438
F0.86506554121346113
sI439
F0.86506554121346113
sI440
F0.86506554121346113
sI441
F0.86506554121346113
sI442
F0.86506554121346113
sI443
F0.86506554121346113
sI444
F0.86506554121346113
sI445
F0.86506554121346113
sI446
F0.86506554121346113
sI447
F0.86506554121346113
sI448
F0.86506554121346113
sI449
F0.86506554121346113
sI450
F0.86506554121346113
sI451
F0.86506554121346113
sI452
F0.86506554121346113
sI453
F0.86506554121346113
sI454
F0.86506554121346113
sI455
F0.86506554121346113
sI456
F0.86506554121346113
sI457
F0.86506554121346113
sI458
F0.86506554121346113
sI459
F0.86506554121346113
sI460
F0.86506554121346113
sI461
F0.86506554121346113
sI462
F0.86506554121346113
sI463
F0.86506554121346113
sI464
F0.86506554121346113
sI465
F0.86506554121346113
sI466
F0.86506554121346113
sI467
F0.86506554121346113
sI468
F0.86506554121346113
sI469
F0.86506554121346113
sI470
F0.86506554121346113
sI471
F0.86506554121346113
sI472
F0.86506554121346113
sI473
F0.86506554121346113
sI474
F0.86506554121346113
sI475
F0.86506554121346113
sI476
F0.86506554121346113
sI477
F0.86506554121346113
sI478
F0.86506554121346113
sI479
F0.86506554121346113
sI480
F0.86506554121346113
sI481
F0.86506554121346113
sI482
F0.86506554121346113
sI483
F0.86506554121346113
sI484
F0.86506554121346113
sI485
F0.86506554121346113
sI486
F0.86506554121346113
sI487
F0.86506554121346113
sI488
F0.86506554121346113
sI489
F0.86506554121346113
sI490
F0.86506554121346113
sI491
F0.86506554121346113
sI492
F0.86506554121346113
sI493
F0.86506554121346113
sI494
F0.86506554121346113
sI495
F0.86506554121346113
sI496
F0.86506554121346113
sI497
F0.86506554121346113
sI498
F0.86506554121346113
sI499
F0.86506554121346113
sI500
F0.86506554121346113
sI501
F0.86506554121346113
sI502
F0.86506554121346113
sI503
F0.86506554121346113
sI504
F0.86506554121346113
sI505
F0.86506554121346113
sI506
F0.86506554121346113
sI507
F0.86506554121346113
sI508
F0.86506554121346113
sI509
F0.86506554121346113
sI510
F0.86506554121346113
sI511
F0.86506554121346113
sI512
F0.86506554121346113
sI513
F0.86506554121346113
sI514
F0.86506554121346113
sI515
F0.86506554121346113
sI516
F0.86506554121346113
sI517
F0.86506554121346113
sI518
F0.86506554121346113
sI519
F0.86506554121346113
sI520
F0.86506554121346113
sI521
F0.86506554121346113
sI522
F0.86506554121346113
sI523
F0.86506554121346113
sI524
F0.86506554121346113
sI525
F0.86506554121346113
sI526
F0.86506554121346113
sI527
F0.86506554121346113
sI528
F0.86506554121346113
sI529
F0.86506554121346113
sI530
F0.86506554121346113
sI531
F0.86506554121346113
sI532
F0.86506554121346113
sI533
F0.86506554121346113
sI534
F0.86506554121346113
sI535
F0.86506554121346113
sI536
F0.86506554121346113
sI537
F0.86506554121346113
sI538
F0.86506554121346113
sI539
F0.86506554121346113
sI540
F0.86506554121346113
sI541
F0.86506554121346113
sI542
F0.86506554121346113
sI543
F0.86506554121346113
sI544
F0.86506554121346113
sI545
F0.86506554121346113
sI546
F0.86506554121346113
sI547
F0.86506554121346113
sI548
F0.86506554121346113
sI549
F0.86506554121346113
sI550
F0.86506554121346113
sI551
F0.86506554121346113
sI552
F0.86506554121346113
sI553
F0.86506554121346113
sI554
F0.86506554121346113
sI555
F0.86506554121346113
sI556
F0.86506554121346113
sI557
F0.86506554121346113
sI558
F0.86506554121346113
sI559
F0.86506554121346113
sI560
F0.86506554121346113
sI561
F0.86506554121346113
sI562
F0.86506554121346113
sI563
F0.86506554121346113
sI564
F0.86506554121346113
sI565
F0.86506554121346113
sI566
F0.86506554121346113
sI567
F0.86506554121346113
sI568
F0.86506554121346113
sI569
F0.86506554121346113
sI570
F0.86506554121346113
sI571
F0.86506554121346113
sI572
F0.86506554121346113
sI573
F0.86506554121346113
sI574
F0.86506554121346113
sI575
F0.86506554121346113
sI576
F0.86506554121346113
sI577
F0.86506554121346113
sI578
F0.86506554121346113
sI579
F0.86506554121346113
sI580
F0.86506554121346113
sI581
F0.86506554121346113
sI582
F0.86506554121346113
sI583
F0.86506554121346113
sI584
F0.86506554121346113
sI585
F0.86506554121346113
sI586
F0.86506554121346113
sI587
F0.86506554121346113
sI588
F0.86506554121346113
sI589
F0.86506554121346113
sI590
F0.86506554121346113
sI591
F0.86506554121346113
sI592
F0.86506554121346113
sI593
F0.86506554121346113
sI594
F0.86506554121346113
sI595
F0.86506554121346113
sI596
F0.86506554121346113
sI597
F0.86506554121346113
sI598
F0.86506554121346113
sI599
F0.86506554121346113
sI600
F0.86506554121346113
sI601
F0.86506554121346113
sI602
F0.86506554121346113
sI603
F0.86506554121346113
sI604
F0.86506554121346113
sI605
F0.86506554121346113
sI606
F0.86506554121346113
sI607
F0.86506554121346113
sI608
F0.86506554121346113
sI609
F0.86506554121346113
sI610
F0.86506554121346113
sI611
F0.86506554121346113
sI612
F0.86506554121346113
sI613
F0.86506554121346113
sI614
F0.86506554121346113
sI615
F0.86506554121346113
sI616
F0.86506554121346113
sI617
F0.86506554121346113
sI618
F0.86506554121346113
sI619
F0.86506554121346113
sI620
F0.86506554121346113
sI621
F0.86506554121346113
sI622
F0.86506554121346113
sI623
F0.86506554121346113
sI624
F0.86506554121346113
sI625
F0.86506554121346113
sI626
F0.86506554121346113
sI627
F0.86506554121346113
sI628
F0.86506554121346113
sI629
F0.86506554121346113
sI630
F0.86506554121346113
sI631
F0.86506554121346113
sI632
F0.86506554121346113
sI633
F0.86506554121346113
sI634
F0.86506554121346113
sI635
F0.86506554121346113
sI636
F0.86506554121346113
sI637
F0.86506554121346113
sI638
F0.86506554121346113
sI639
F0.86506554121346113
sI640
F0.86506554121346113
sI641
F0.86506554121346113
sI642
F0.86506554121346113
sI643
F0.86506554121346113
sI644
F0.86506554121346113
sI645
F0.86506554121346113
sI646
F0.86506554121346113
sI647
F0.86506554121346113
sI648
F0.86506554121346113
sI649
F0.86506554121346113
sI650
F0.86506554121346113
sI651
F0.86506554121346113
sI652
F0.86506554121346113
sI653
F0.86506554121346113
sI654
F0.86506554121346113
sI655
F0.86506554121346113
sI656
F0.86506554121346113
sI657
F0.86506554121346113
sI658
F0.86506554121346113
sI659
F0.86506554121346113
sI660
F0.86506554121346113
sI661
F0.86506554121346113
sI662
F0.86506554121346113
sI663
F0.86506554121346113
sI664
F0.86506554121346113
sI665
F0.86506554121346113
sI666
F0.86506554121346113
sI667
F0.86506554121346113
sI668
F0.86506554121346113
sI669
F0.86506554121346113
sI670
F0.86506554121346113
sI671
F0.86506554121346113
sI672
F0.86506554121346113
sI673
F0.86506554121346113
sI674
F0.86506554121346113
sI675
F0.86506554121346113
sa.