(dp1
I1
F0.14977606605392446
sI2
F0.14977606605392446
sI3
F1.1171995845590459
sI4
F1.1171995845590459
sI5
F1.1171995845590459
sI6
F1.1171995845590459
sI7
F1.1171995845590459
sI8
F1.1171995845590459
sI9
F1.1171995845590459
sI10
F1.1171995845590459
sI11
F2.125188639185656
sI12
F2.125188639185656
sI13
F2.125188639185656
sI14
F2.125188639185656
sI15
F2.125188639185656
sI16
F2.125188639185656
sI17
F2.125188639185656
sI18
F2.125188639185656
sI19
F2.125188639185656
sI20
F2.125188639185656
sI21
F2.125188639185656
sI22
F2.125188639185656
sI23
F2.125188639185656
sI24
F2.125188639185656
sI25
F2.125188639185656
sI26
F2.125188639185656
sI27
F2.125188639185656
sI28
F2.125188639185656
sI29
F2.125188639185656
sI30
F2.125188639185656
sI31
F2.125188639185656
sI32
F2.125188639185656
sI33
F2.125188639185656
sI34
F2.125188639185656
sI35
F2.125188639185656
sI36
F2.125188639185656
sI37
F2.125188639185656
sI38
F2.125188639185656
sI39
F2.125188639185656
sI40
F2.125188639185656
sI41
F2.125188639185656
sI42
F2.125188639185656
sI43
F2.125188639185656
sI44
F1.8431418433015119
sI45
F1.8431418433015119
sI46
F1.8431418433015119
sI47
F1.8431418433015119
sI48
F1.8431418433015119
sI49
F1.8431418433015119
sI50
F1.8431418433015119
sI51
F1.8431418433015119
sI52
F1.8431418433015119
sI53
F1.8431418433015119
sI54
F1.8431418433015119
sI55
F1.8431418433015119
sI56
F1.8431418433015119
sI57
F1.8431418433015119
sI58
F1.8431418433015119
sI59
F1.8431418433015119
sI60
F1.8431418433015119
sI61
F1.8431418433015119
sI62
F1.8431418433015119
sI63
F1.8431418433015119
sI64
F1.8431418433015119
sI65
F1.8431418433015119
sI66
F1.8431418433015119
sI67
F1.8431418433015119
sI68
F2.0757698684328028
sI69
F2.0757698684328028
sI70
F2.0757698684328028
sI71
F2.0757698684328028
sI72
F2.0757698684328028
sI73
F2.0757698684328028
sI74
F2.0757698684328028
sI75
F2.0757698684328028
sI76
F2.0757698684328028
sI77
F2.0757698684328028
sI78
F2.0757698684328028
sI79
F2.0757698684328028
sI80
F1.8589903911027128
sI81
F1.8589903911027128
sI82
F1.8589903911027128
sI83
F1.8589903911027128
sI84
F1.8589903911027128
sI85
F1.8589903911027128
sI86
F1.8589903911027128
sI87
F1.8589903911027128
sI88
F1.8589903911027128
sI89
F1.8589903911027128
sI90
F1.8589903911027128
sI91
F1.8589903911027128
sI92
F1.8589903911027128
sI93
F1.8589903911027128
sI94
F1.8589903911027128
sI95
F1.8589903911027128
sI96
F1.8589903911027128
sI97
F1.8589903911027128
sI98
F1.8589903911027128
sI99
F1.8589903911027128
sI100
F1.8589903911027128
sI101
F1.8589903911027128
sI102
F1.8589903911027128
sI103
F1.8589903911027128
sI104
F1.8589903911027128
sI105
F1.8589903911027128
sI106
F1.8589903911027128
sI107
F1.8589903911027128
sI108
F1.8589903911027128
sI109
F1.8589903911027128
sI110
F1.8589903911027128
sI111
F1.8589903911027128
sI112
F1.8589903911027128
sI113
F1.8589903911027128
sI114
F1.8589903911027128
sI115
F1.8741846862710541
sI116
F1.8741846862710541
sI117
F1.8741846862710541
sI118
F1.8741846862710541
sI119
F1.8741846862710541
sI120
F1.8741846862710541
sI121
F1.8741846862710541
sI122
F1.8741846862710541
sI123
F1.8741846862710541
sI124
F1.8741846862710541
sI125
F1.8741846862710541
sI126
F1.8741846862710541
sI127
F1.8741846862710541
sI128
F1.8741846862710541
sI129
F1.8741846862710541
sI130
F1.8741846862710541
sI131
F1.8741846862710541
sI132
F1.8741846862710541
sI133
F1.8741846862710541
sI134
F1.8741846862710541
sI135
F1.8741846862710541
sI136
F1.8741846862710541
sI137
F1.8741846862710541
sI138
F1.8741846862710541
sI139
F1.8741846862710541
sI140
F1.8741846862710541
sI141
F1.8741846862710541
sI142
F1.8741846862710541
sI143
F1.8741846862710541
sI144
F1.8741846862710541
sI145
F1.8741846862710541
sI146
F1.8741846862710541
sI147
F1.8741846862710541
sI148
F1.8741846862710541
sI149
F1.8741846862710541
sI150
F1.8741846862710541
sI151
F1.8741846862710541
sI152
F1.8741846862710541
sI153
F1.8741846862710541
sI154
F1.8741846862710541
sI155
F1.8741846862710541
sI156
F1.8741846862710541
sI157
F1.8741846862710541
sI158
F1.8741846862710541
sI159
F1.8741846862710541
sI160
F1.8741846862710541
sI161
F1.8741846862710541
sI162
F1.8741846862710541
sI163
F1.8741846862710541
sI164
F1.8741846862710541
sI165
F1.8741846862710541
sI166
F1.8741846862710541
sI167
F1.8741846862710541
sI168
F1.8741846862710541
sI169
F1.8741846862710541
sI170
F1.8741846862710541
sI171
F1.8741846862710541
sI172
F1.8741846862710541
sI173
F1.8741846862710541
sI174
F1.8741846862710541
sI175
F1.8741846862710541
sI176
F1.8741846862710541
sI177
F1.8741846862710541
sI178
F1.8741846862710541
sI179
F1.8741846862710541
sI180
F1.8741846862710541
sI181
F1.8741846862710541
sI182
F1.8741846862710541
sI183
F1.8741846862710541
sI184
F1.8741846862710541
sI185
F1.8741846862710541
sI186
F1.8741846862710541
sI187
F1.8741846862710541
sI188
F1.8741846862710541
sI189
F1.8741846862710541
sI190
F1.8741846862710541
sI191
F1.8741846862710541
sI192
F1.8741846862710541
sI193
F1.8741846862710541
sI194
F1.9710215347090605
sI195
F1.9710215347090605
sI196
F1.9710215347090605
sI197
F1.9710215347090605
sI198
F1.9710215347090605
sI199
F1.9710215347090605
sI200
F1.9710215347090605
sI201
F1.9710215347090605
sI202
F1.9710215347090605
sI203
F1.9710215347090605
sI204
F1.9710215347090605
sI205
F1.9710215347090605
sI206
F1.9710215347090605
sI207
F1.9710215347090605
sI208
F1.9710215347090605
sI209
F1.9710215347090605
sI210
F1.9710215347090605
sI211
F1.9710215347090605
sI212
F1.9710215347090605
sI213
F1.9710215347090605
sI214
F1.9710215347090605
sI215
F1.9710215347090605
sI216
F1.9710215347090605
sI217
F1.9710215347090605
sI218
F1.9710215347090605
sI219
F1.9710215347090605
sI220
F1.9710215347090605
sI221
F1.9710215347090605
sI222
F1.9710215347090605
sI223
F1.9710215347090605
sI224
F1.9710215347090605
sI225
F1.9710215347090605
sI226
F1.9710215347090605
sI227
F1.9710215347090605
sI228
F1.9710215347090605
sI229
F1.9710215347090605
sI230
F1.9710215347090605
sI231
F1.9710215347090605
sI232
F1.9710215347090605
sI233
F1.9710215347090605
sI234
F1.9710215347090605
sI235
F1.9710215347090605
sI236
F1.9710215347090605
sI237
F1.9710215347090605
sI238
F1.9710215347090605
sI239
F1.9710215347090605
sI240
F1.9710215347090605
sI241
F1.9710215347090605
sI242
F1.9710215347090605
sI243
F1.9710215347090605
sI244
F1.9710215347090605
sI245
F1.9710215347090605
sI246
F1.9710215347090605
sI247
F1.9710215347090605
sI248
F1.9710215347090605
sI249
F1.9710215347090605
sI250
F1.9710215347090605
sI251
F1.9710215347090605
sI252
F1.9710215347090605
sI253
F1.9710215347090605
sI254
F1.9710215347090605
sI255
F1.9710215347090605
sI256
F1.9710215347090605
sI257
F1.9710215347090605
sI258
F1.9710215347090605
sI259
F1.9710215347090605
sI260
F1.9710215347090605
sI261
F1.9710215347090605
sI262
F1.9710215347090605
sI263
F1.9710215347090605
sI264
F1.9710215347090605
sI265
F1.9710215347090605
sI266
F1.9710215347090605
sI267
F1.9710215347090605
sI268
F1.9710215347090605
sI269
F1.9710215347090605
sI270
F1.9710215347090605
sI271
F1.9710215347090605
sI272
F1.9710215347090605
sI273
F1.9710215347090605
sI274
F1.9710215347090605
sI275
F1.9710215347090605
sI276
F1.9710215347090605
sI277
F1.9710215347090605
sI278
F1.9710215347090605
sI279
F1.9710215347090605
sI280
F1.9710215347090605
sI281
F1.9710215347090605
sI282
F1.9710215347090605
sI283
F1.9710215347090605
sI284
F1.9710215347090605
sI285
F1.9710215347090605
sI286
F1.9710215347090605
sI287
F1.9710215347090605
sI288
F1.9710215347090605
sI289
F1.9710215347090605
sI290
F1.9710215347090605
sI291
F1.9710215347090605
sI292
F1.9710215347090605
sI293
F1.9710215347090605
sI294
F1.9710215347090605
sI295
F1.9710215347090605
sI296
F1.9710215347090605
sI297
F1.9710215347090605
sI298
F1.9777487598853094
sI299
F1.9777487598853094
sI300
F1.9777487598853094
sI301
F1.9777487598853094
sI302
F1.9777487598853094
sI303
F1.9777487598853094
sI304
F1.9777487598853094
sI305
F1.9777487598853094
sI306
F1.9777487598853094
sI307
F1.9777487598853094
sI308
F1.9777487598853094
sI309
F1.9777487598853094
sI310
F1.9777487598853094
sI311
F1.9777487598853094
sI312
F1.9777487598853094
sI313
F1.9777487598853094
sI314
F1.9777487598853094
sI315
F1.9777487598853094
sI316
F1.9777487598853094
sI317
F1.9777487598853094
sI318
F1.9777487598853094
sI319
F1.9777487598853094
sI320
F1.9777487598853094
sI321
F1.9777487598853094
sI322
F1.9777487598853094
sI323
F1.9777487598853094
sI324
F1.9777487598853094
sI325
F1.9777487598853094
sI326
F1.9777487598853094
sI327
F1.9777487598853094
sI328
F1.9777487598853094
sI329
F1.9777487598853094
sI330
F1.9777487598853094
sI331
F1.9777487598853094
sI332
F1.9777487598853094
sI333
F1.9777487598853094
sI334
F1.9777487598853094
sI335
F1.9777487598853094
sI336
F1.9777487598853094
sI337
F1.9777487598853094
sI338
F1.9777487598853094
sI339
F1.9777487598853094
sI340
F1.9777487598853094
sI341
F1.9777487598853094
sI342
F1.9777487598853094
sI343
F1.9777487598853094
sI344
F1.9777487598853094
sI345
F1.9777487598853094
sI346
F1.9777487598853094
sI347
F1.9777487598853094
sI348
F1.9777487598853094
sI349
F1.9777487598853094
sI350
F1.9777487598853094
sI351
F1.9777487598853094
sI352
F1.9777487598853094
sI353
F1.9777487598853094
sI354
F1.9777487598853094
sI355
F1.9777487598853094
sI356
F1.9777487598853094
sI357
F1.9777487598853094
sI358
F1.9777487598853094
sI359
F1.9777487598853094
sI360
F1.9777487598853094
sI361
F1.9777487598853094
sI362
F1.9777487598853094
sI363
F1.9777487598853094
sI364
F1.9777487598853094
sI365
F1.9777487598853094
sI366
F1.9777487598853094
sI367
F1.9777487598853094
sI368
F1.9777487598853094
sI369
F1.9777487598853094
sI370
F1.9777487598853094
sI371
F1.9777487598853094
sI372
F1.9777487598853094
sI373
F1.9777487598853094
sI374
F1.9777487598853094
sI375
F1.9777487598853094
sI376
F1.9777487598853094
sI377
F1.9777487598853094
sI378
F1.9777487598853094
sI379
F1.9777487598853094
sI380
F1.9483420375280225
sI381
F1.9483420375280225
sI382
F1.9483420375280225
sI383
F1.9483420375280225
sI384
F1.9483420375280225
sI385
F1.9483420375280225
sI386
F1.9483420375280225
sI387
F1.9483420375280225
sI388
F1.9483420375280225
sI389
F1.9483420375280225
sI390
F1.9483420375280225
sI391
F1.9483420375280225
sI392
F1.9483420375280225
sI393
F1.9483420375280225
sI394
F1.9483420375280225
sI395
F1.9483420375280225
sI396
F1.9483420375280225
sI397
F1.9483420375280225
sI398
F1.9483420375280225
sI399
F1.9483420375280225
sI400
F1.9483420375280225
sI401
F1.9483420375280225
sI402
F1.9483420375280225
sI403
F1.9483420375280225
sI404
F1.9483420375280225
sI405
F1.9483420375280225
sI406
F1.9483420375280225
sI407
F1.9483420375280225
sI408
F1.9483420375280225
sI409
F1.9483420375280225
sI410
F1.9483420375280225
sI411
F1.9483420375280225
sI412
F1.9483420375280225
sI413
F1.9483420375280225
sI414
F1.9483420375280225
sI415
F1.9483420375280225
sI416
F1.9483420375280225
sI417
F1.9483420375280225
sI418
F1.9483420375280225
sI419
F1.9483420375280225
sI420
F1.9483420375280225
sI421
F1.9483420375280225
sI422
F1.9483420375280225
sI423
F1.9483420375280225
sI424
F1.9483420375280225
sI425
F1.9483420375280225
sI426
F1.9483420375280225
sI427
F1.9483420375280225
sI428
F1.9483420375280225
sI429
F1.9483420375280225
sI430
F1.9483420375280225
sI431
F1.9483420375280225
sI432
F1.9483420375280225
sI433
F1.9483420375280225
sI434
F1.9483420375280225
sI435
F1.9483420375280225
sI436
F1.9483420375280225
sI437
F1.9483420375280225
sI438
F1.9483420375280225
sI439
F1.9483420375280225
sI440
F1.9483420375280225
sI441
F1.9483420375280225
sI442
F1.9483420375280225
sI443
F1.9483420375280225
sI444
F1.9483420375280225
sI445
F1.9483420375280225
sI446
F1.9483420375280225
sI447
F1.9483420375280225
sI448
F1.9483420375280225
sI449
F1.9483420375280225
sI450
F1.9483420375280225
sI451
F1.9483420375280225
sI452
F1.9483420375280225
sI453
F1.9483420375280225
sI454
F1.9483420375280225
sI455
F1.9483420375280225
sI456
F1.9483420375280225
sI457
F1.9483420375280225
sI458
F1.9483420375280225
sI459
F1.9483420375280225
sI460
F1.9483420375280225
sI461
F2.0108180895045473
sI462
F2.0108180895045473
sI463
F2.0108180895045473
sI464
F2.0108180895045473
sI465
F2.0108180895045473
sI466
F2.0108180895045473
sI467
F2.0108180895045473
sI468
F2.0108180895045473
sI469
F2.0108180895045473
sI470
F2.0108180895045473
sI471
F2.0108180895045473
sI472
F2.0108180895045473
sI473
F2.0108180895045473
sI474
F2.0108180895045473
sI475
F2.0108180895045473
sI476
F2.0108180895045473
sI477
F2.0108180895045473
sI478
F2.0108180895045473
sI479
F2.0108180895045473
sI480
F2.0108180895045473
sI481
F2.0108180895045473
sI482
F2.0108180895045473
sI483
F2.0108180895045473
sI484
F2.0108180895045473
sI485
F2.0108180895045473
sI486
F2.0108180895045473
sI487
F2.0108180895045473
sI488
F2.0108180895045473
sI489
F2.0108180895045473
sI490
F2.0108180895045473
sI491
F2.0108180895045473
sI492
F2.0108180895045473
sI493
F2.0108180895045473
sI494
F2.0108180895045473
sI495
F2.0108180895045473
sI496
F2.0108180895045473
sI497
F2.0108180895045473
sI498
F2.0108180895045473
sI499
F2.0108180895045473
sI500
F2.0108180895045473
sI501
F2.0108180895045473
sI502
F2.0108180895045473
sI503
F2.0108180895045473
sI504
F2.0108180895045473
sI505
F2.0108180895045473
sI506
F2.0108180895045473
sI507
F2.0108180895045473
sI508
F2.0108180895045473
sI509
F2.0108180895045473
sI510
F2.0108180895045473
sI511
F2.0108180895045473
sI512
F2.0108180895045473
sI513
F2.0108180895045473
sI514
F2.0108180895045473
sI515
F2.0108180895045473
sI516
F2.0108180895045473
sI517
F2.0108180895045473
sI518
F2.0108180895045473
sI519
F2.0108180895045473
sI520
F2.0108180895045473
sI521
F2.0108180895045473
sI522
F2.0108180895045473
sI523
F2.0108180895045473
sI524
F2.0108180895045473
sI525
F2.0108180895045473
sI526
F2.0108180895045473
sI527
F2.0108180895045473
sI528
F2.0108180895045473
sI529
F2.0108180895045473
sI530
F2.0108180895045473
sI531
F2.0108180895045473
sI532
F2.0108180895045473
sI533
F2.0108180895045473
sI534
F2.0108180895045473
sI535
F2.0108180895045473
sI536
F2.0108180895045473
sI537
F2.0108180895045473
sI538
F2.0108180895045473
sI539
F2.0108180895045473
sI540
F2.0108180895045473
sI541
F2.0108180895045473
sI542
F2.0108180895045473
sI543
F2.0108180895045473
sI544
F2.0108180895045473
sI545
F2.0108180895045473
sI546
F2.0108180895045473
sI547
F2.0108180895045473
sI548
F2.0108180895045473
sI549
F2.0108180895045473
sI550
F2.0108180895045473
sI551
F2.0108180895045473
sI552
F2.0108180895045473
sI553
F2.0108180895045473
sI554
F2.0108180895045473
sI555
F2.0108180895045473
sI556
F2.0108180895045473
sI557
F2.0108180895045473
sI558
F2.0108180895045473
sI559
F2.0108180895045473
sI560
F2.0108180895045473
sI561
F2.0108180895045473
sI562
F2.0108180895045473
sI563
F2.0108180895045473
sI564
F2.0108180895045473
sI565
F2.0108180895045473
sI566
F2.0108180895045473
sI567
F2.0108180895045473
sI568
F2.0108180895045473
sI569
F2.0108180895045473
sI570
F2.0108180895045473
sI571
F2.0108180895045473
sI572
F2.0108180895045473
sI573
F2.0108180895045473
sI574
F2.0108180895045473
sI575
F2.0108180895045473
sI576
F2.0108180895045473
sI577
F2.0108180895045473
sI578
F2.0108180895045473
sI579
F2.0108180895045473
sI580
F2.0108180895045473
sI581
F2.0108180895045473
sI582
F2.0108180895045473
sI583
F2.0108180895045473
sI584
F2.0108180895045473
sI585
F2.0108180895045473
sI586
F2.0108180895045473
sI587
F2.0108180895045473
sI588
F2.0108180895045473
sI589
F2.0108180895045473
sI590
F2.0108180895045473
sI591
F2.0108180895045473
sI592
F2.0108180895045473
sI593
F2.0108180895045473
sI594
F2.0108180895045473
sI595
F2.0108180895045473
sI596
F2.0108180895045473
sI597
F2.0108180895045473
sI598
F2.0108180895045473
sI599
F2.0108180895045473
sI600
F2.0108180895045473
sI601
F2.0108180895045473
sI602
F2.0108180895045473
sI603
F2.0108180895045473
sI604
F2.0108180895045473
sI605
F2.0108180895045473
sI606
F2.0108180895045473
sI607
F2.0108180895045473
sI608
F2.0108180895045473
sI609
F2.0108180895045473
sI610
F2.0108180895045473
sI611
F2.0108180895045473
sI612
F2.0108180895045473
sI613
F2.0108180895045473
sI614
F2.0108180895045473
sI615
F2.0108180895045473
sI616
F2.0108180895045473
sI617
F2.0108180895045473
sI618
F2.0108180895045473
sI619
F2.0108180895045473
sI620
F2.0108180895045473
sI621
F2.0108180895045473
sI622
F2.0108180895045473
sI623
F2.0108180895045473
sI624
F2.0108180895045473
sI625
F2.0108180895045473
sI626
F2.0108180895045473
sI627
F2.0108180895045473
sI628
F2.0108180895045473
sI629
F2.0108180895045473
sI630
F2.0108180895045473
sI631
F2.0108180895045473
sI632
F2.0108180895045473
sI633
F2.0108180895045473
sI634
F2.0108180895045473
sI635
F2.0108180895045473
sI636
F2.0108180895045473
sI637
F2.0108180895045473
sI638
F2.0108180895045473
sI639
F2.0108180895045473
sI640
F2.0108180895045473
sI641
F2.0108180895045473
sI642
F2.0108180895045473
sI643
F2.0108180895045473
sI644
F2.0108180895045473
sI645
F2.0108180895045473
sI646
F2.0108180895045473
sI647
F2.0108180895045473
sI648
F2.0108180895045473
sI649
F2.0108180895045473
sI650
F2.0108180895045473
sI651
F2.0108180895045473
sI652
F2.0108180895045473
sI653
F2.0108180895045473
sI654
F2.0108180895045473
sI655
F2.0108180895045473
sI656
F2.0108180895045473
sI657
F2.0108180895045473
sI658
F2.0108180895045473
sI659
F2.0108180895045473
sI660
F2.0108180895045473
sI661
F2.0108180895045473
sI662
F2.0108180895045473
sI663
F2.0108180895045473
sI664
F2.0108180895045473
sI665
F2.0108180895045473
sI666
F2.0108180895045473
sI667
F2.0108180895045473
sI668
F2.0108180895045473
sI669
F2.0108180895045473
sI670
F2.0108180895045473
sI671
F2.0108180895045473
sI672
F2.0108180895045473
sI673
F2.0108180895045473
sI674
F2.0108180895045473
sI675
F2.0108180895045473
sI676
F2.0108180895045473
sI677
F2.0108180895045473
sI678
F2.0108180895045473
sI679
F2.0108180895045473
sI680
F2.0108180895045473
sI681
F2.0108180895045473
sI682
F2.0108180895045473
sI683
F2.0108180895045473
sI684
F2.0108180895045473
sI685
F2.0108180895045473
sI686
F2.0108180895045473
sI687
F2.0108180895045473
sI688
F2.0108180895045473
sI689
F2.0108180895045473
sI690
F2.0108180895045473
sI691
F2.0108180895045473
sI692
F2.0108180895045473
sI693
F2.0108180895045473
sI694
F2.0108180895045473
sI695
F2.0108180895045473
sI696
F2.0108180895045473
sI697
F2.0108180895045473
sI698
F2.0108180895045473
sI699
F2.0108180895045473
sI700
F2.0108180895045473
sI701
F2.0108180895045473
sI702
F2.0108180895045473
sI703
F2.0108180895045473
sI704
F2.0108180895045473
sI705
F2.0108180895045473
sI706
F2.0108180895045473
sI707
F2.0108180895045473
sI708
F2.0108180895045473
sI709
F2.0108180895045473
sI710
F2.0108180895045473
sI711
F2.0108180895045473
sI712
F2.0108180895045473
sI713
F2.0108180895045473
sI714
F2.0108180895045473
sI715
F2.0108180895045473
sI716
F2.0108180895045473
sI717
F2.0108180895045473
sI718
F2.0108180895045473
sI719
F2.0108180895045473
sI720
F2.0108180895045473
sI721
F2.0108180895045473
sI722
F2.0108180895045473
sI723
F2.0108180895045473
sI724
F2.0108180895045473
sI725
F2.0108180895045473
sI726
F2.0108180895045473
sI727
F2.0108180895045473
sI728
F2.0108180895045473
sI729
F2.0108180895045473
sI730
F2.0108180895045473
sI731
F2.0108180895045473
sI732
F2.0108180895045473
sI733
F2.0108180895045473
sI734
F2.0108180895045473
sI735
F2.0108180895045473
sI736
F2.0108180895045473
sI737
F2.0108180895045473
sI738
F2.0108180895045473
sI739
F2.0108180895045473
sI740
F2.0108180895045473
sI741
F2.0108180895045473
sI742
F2.0108180895045473
sI743
F2.0108180895045473
sI744
F2.0108180895045473
sI745
F2.0108180895045473
sI746
F2.0108180895045473
sI747
F2.0108180895045473
sI748
F2.0108180895045473
sI749
F2.0108180895045473
sI750
F2.0108180895045473
sI751
F2.0108180895045473
sI752
F2.0108180895045473
sI753
F2.0108180895045473
sI754
F2.0108180895045473
sI755
F2.0108180895045473
sI756
F2.0108180895045473
sI757
F2.0108180895045473
sI758
F2.0108180895045473
sI759
F2.0108180895045473
sI760
F2.0108180895045473
sI761
F2.0108180895045473
sI762
F2.0108180895045473
sI763
F2.0108180895045473
sI764
F2.0108180895045473
sI765
F2.0108180895045473
sI766
F2.0108180895045473
sI767
F2.0108180895045473
sI768
F2.0108180895045473
sI769
F2.0108180895045473
sI770
F2.0108180895045473
sI771
F2.0108180895045473
sI772
F2.0108180895045473
sI773
F2.0108180895045473
sI774
F2.0108180895045473
sI775
F2.0108180895045473
sI776
F2.0108180895045473
sI777
F2.0108180895045473
sI778
F2.0108180895045473
sI779
F2.0108180895045473
sI780
F2.0108180895045473
sI781
F2.0108180895045473
sI782
F2.0108180895045473
sI783
F2.0108180895045473
sI784
F2.0108180895045473
sI785
F2.0108180895045473
sI786
F2.0108180895045473
sI787
F1.9892113902772874
sI788
F2.0123609528217488
sI789
F2.0123609528217488
sI790
F2.0123609528217488
sI791
F2.0123609528217488
sI792
F2.0123609528217488
sI793
F2.0123609528217488
sI794
F2.0123609528217488
sI795
F2.0123609528217488
sI796
F2.0123609528217488
sI797
F2.0123609528217488
sI798
F2.0123609528217488
sI799
F2.0123609528217488
sI800
F2.0123609528217488
sI801
F2.0123609528217488
sI802
F2.0123609528217488
sI803
F2.0123609528217488
sI804
F2.0123609528217488
sI805
F2.0123609528217488
sI806
F2.0123609528217488
sI807
F2.0123609528217488
sI808
F2.0123609528217488
sI809
F2.0123609528217488
sI810
F2.0123609528217488
sI811
F2.0123609528217488
sI812
F2.0123609528217488
sI813
F2.0123609528217488
sI814
F2.0123609528217488
sI815
F2.0123609528217488
sI816
F2.0123609528217488
sI817
F2.0123609528217488
sI818
F2.0123609528217488
sI819
F2.0123609528217488
sI820
F2.0123609528217488
sI821
F2.0123609528217488
sI822
F2.0123609528217488
sI823
F2.0123609528217488
sI824
F2.0123609528217488
sI825
F2.0123609528217488
sI826
F2.0123609528217488
sI827
F2.0123609528217488
sI828
F2.0123609528217488
sI829
F2.0123609528217488
sI830
F2.0123609528217488
sI831
F2.0123609528217488
sI832
F2.0123609528217488
sI833
F2.0123609528217488
sI834
F2.0123609528217488
sI835
F2.0123609528217488
sI836
F2.0123609528217488
sI837
F2.0123609528217488
sI838
F2.0123609528217488
sI839
F2.0123609528217488
sI840
F1.8927828392763404
sI841
F1.8927828392763404
sI842
F1.8927828392763404
sI843
F1.8927828392763404
sI844
F1.8927828392763404
sI845
F1.8927828392763404
sI846
F1.8927828392763404
sI847
F1.8927828392763404
sI848
F1.8927828392763404
sI849
F1.8927828392763404
sI850
F1.8927828392763404
sI851
F1.8927828392763404
sI852
F1.8927828392763404
sI853
F1.8927828392763404
sI854
F1.8927828392763404
sI855
F1.8927828392763404
sI856
F1.8927828392763404
sI857
F1.8927828392763404
sI858
F1.8927828392763404
sI859
F1.8927828392763404
sI860
F1.8927828392763404
sI861
F1.8927828392763404
sI862
F1.8927828392763404
sI863
F1.8927828392763404
sI864
F1.8927828392763404
sI865
F1.8927828392763404
sI866
F1.8927828392763404
sI867
F1.8927828392763404
sI868
F1.8927828392763404
sI869
F1.8927828392763404
sI870
F1.8927828392763404
sI871
F1.8927828392763404
sI872
F1.8927828392763404
sI873
F1.8927828392763404
sI874
F1.8927828392763404
sI875
F1.8927828392763404
sI876
F1.8927828392763404
sI877
F1.8927828392763404
sI878
F1.8927828392763404
sI879
F1.8927828392763404
sI880
F1.8927828392763404
sI881
F1.8927828392763404
sI882
F1.8927828392763404
sI883
F1.8927828392763404
sI884
F1.8927828392763404
sI885
F1.8927828392763404
sI886
F1.8927828392763404
sI887
F1.8927828392763404
sI888
F1.8927828392763404
sI889
F1.8927828392763404
sI890
F1.8927828392763404
sI891
F1.8927828392763404
sI892
F1.8927828392763404
sI893
F1.8927828392763404
sI894
F1.8927828392763404
sI895
F1.8927828392763404
sI896
F1.8927828392763404
sI897
F1.8927828392763404
sI898
F1.8927828392763404
sI899
F1.8927828392763404
sI900
F1.8927828392763404
sI901
F1.8927828392763404
sI902
F1.8927828392763404
sI903
F1.8927828392763404
sI904
F1.8927828392763404
sI905
F1.8927828392763404
sI906
F1.8927828392763404
sI907
F1.8927828392763404
sI908
F1.8927828392763404
sI909
F1.8927828392763404
sI910
F1.8927828392763404
sI911
F1.8927828392763404
sI912
F1.8927828392763404
sI913
F1.8927828392763404
sI914
F1.8927828392763404
sI915
F1.8927828392763404
sI916
F1.8927828392763404
sI917
F1.8927828392763404
sI918
F1.8927828392763404
sI919
F1.980296058300296
sI920
F1.980296058300296
sI921
F1.980296058300296
sI922
F1.980296058300296
sI923
F1.980296058300296
sI924
F1.980296058300296
sI925
F1.980296058300296
sI926
F1.980296058300296
sI927
F1.980296058300296
sI928
F1.980296058300296
sI929
F1.980296058300296
sI930
F1.980296058300296
sI931
F1.980296058300296
sI932
F1.980296058300296
sI933
F1.980296058300296
sI934
F1.980296058300296
sI935
F1.980296058300296
sI936
F1.980296058300296
sI937
F1.980296058300296
sI938
F1.980296058300296
sI939
F1.980296058300296
sI940
F1.980296058300296
sI941
F1.980296058300296
sI942
F1.980296058300296
sI943
F1.980296058300296
sI944
F1.980296058300296
sI945
F1.980296058300296
sI946
F1.980296058300296
sI947
F1.980296058300296
sI948
F1.980296058300296
sI949
F1.980296058300296
sI950
F1.980296058300296
sI951
F1.980296058300296
sI952
F1.980296058300296
sI953
F1.980296058300296
sI954
F1.980296058300296
sI955
F1.980296058300296
sI956
F1.980296058300296
sI957
F1.980296058300296
sI958
F1.980296058300296
sI959
F1.980296058300296
sI960
F1.980296058300296
sI961
F1.980296058300296
sI962
F1.980296058300296
sI963
F1.980296058300296
sI964
F1.980296058300296
sI965
F1.980296058300296
sI966
F1.980296058300296
sI967
F1.980296058300296
sI968
F1.980296058300296
sI969
F1.980296058300296
sI970
F1.980296058300296
sI971
F1.980296058300296
sI972
F1.980296058300296
sI973
F1.980296058300296
sI974
F1.980296058300296
sI975
F1.980296058300296
sI976
F1.980296058300296
sI977
F1.980296058300296
sI978
F1.980296058300296
sI979
F1.980296058300296
sI980
F1.980296058300296
sI981
F1.980296058300296
sI982
F1.980296058300296
sI983
F1.980296058300296
sI984
F1.980296058300296
sI985
F1.980296058300296
sI986
F1.980296058300296
sI987
F1.980296058300296
sI988
F1.980296058300296
sI989
F1.980296058300296
sI990
F1.980296058300296
sI991
F1.980296058300296
sI992
F1.980296058300296
sI993
F1.980296058300296
sI994
F1.980296058300296
sI995
F1.980296058300296
sI996
F1.980296058300296
sI997
F1.980296058300296
sI998
F1.980296058300296
sI999
F1.980296058300296
sI1000
F1.980296058300296
sI1001
F1.980296058300296
sI1002
F1.980296058300296
sI1003
F1.980296058300296
sI1004
F1.980296058300296
sI1005
F1.980296058300296
sI1006
F1.980296058300296
sI1007
F1.980296058300296
sI1008
F1.980296058300296
sI1009
F1.980296058300296
sI1010
F1.980296058300296
sI1011
F1.980296058300296
sI1012
F1.980296058300296
sI1013
F1.980296058300296
sI1014
F1.980296058300296
sI1015
F1.980296058300296
sI1016
F1.980296058300296
sI1017
F1.980296058300296
sI1018
F1.980296058300296
sI1019
F1.980296058300296
sI1020
F1.980296058300296
sI1021
F1.980296058300296
sI1022
F1.980296058300296
sI1023
F1.980296058300296
sI1024
F1.980296058300296
sI1025
F1.980296058300296
sI1026
F1.980296058300296
sI1027
F1.980296058300296
sI1028
F1.980296058300296
sI1029
F1.980296058300296
sI1030
F1.980296058300296
sI1031
F1.980296058300296
sI1032
F1.980296058300296
sI1033
F1.980296058300296
sI1034
F1.980296058300296
sI1035
F1.980296058300296
sI1036
F1.980296058300296
sI1037
F1.980296058300296
sI1038
F1.980296058300296
sI1039
F1.980296058300296
sI1040
F1.980296058300296
sI1041
F1.980296058300296
sI1042
F1.980296058300296
sI1043
F1.980296058300296
sI1044
F1.980296058300296
sI1045
F1.980296058300296
sI1046
F1.980296058300296
sI1047
F1.980296058300296
sI1048
F1.980296058300296
sI1049
F1.980296058300296
sI1050
F1.980296058300296
sI1051
F1.980296058300296
sI1052
F1.980296058300296
sI1053
F1.980296058300296
sI1054
F1.980296058300296
sI1055
F1.980296058300296
sI1056
F1.980296058300296
sI1057
F1.980296058300296
sI1058
F1.980296058300296
sI1059
F1.980296058300296
sI1060
F1.980296058300296
sI1061
F1.980296058300296
sI1062
F1.980296058300296
sI1063
F1.980296058300296
sI1064
F1.980296058300296
sI1065
F1.980296058300296
sI1066
F1.980296058300296
sI1067
F1.980296058300296
sI1068
F1.980296058300296
sI1069
F1.980296058300296
sI1070
F1.980296058300296
sI1071
F1.980296058300296
sI1072
F1.980296058300296
sI1073
F1.980296058300296
sI1074
F1.980296058300296
sI1075
F1.980296058300296
sI1076
F1.980296058300296
sI1077
F1.980296058300296
sI1078
F1.980296058300296
sI1079
F1.980296058300296
sI1080
F1.980296058300296
sI1081
F1.980296058300296
sI1082
F1.980296058300296
sI1083
F1.980296058300296
sI1084
F1.980296058300296
sI1085
F1.980296058300296
sI1086
F1.980296058300296
sI1087
F1.980296058300296
sI1088
F1.980296058300296
sI1089
F1.980296058300296
sI1090
F1.980296058300296
sI1091
F1.980296058300296
sI1092
F1.980296058300296
sI1093
F1.980296058300296
sI1094
F1.980296058300296
sI1095
F1.980296058300296
sI1096
F1.980296058300296
sI1097
F1.980296058300296
sI1098
F1.980296058300296
sI1099
F1.980296058300296
sI1100
F1.980296058300296
sI1101
F1.980296058300296
sI1102
F1.980296058300296
sI1103
F1.980296058300296
sI1104
F1.980296058300296
sI1105
F1.980296058300296
sI1106
F1.980296058300296
sI1107
F1.980296058300296
sI1108
F1.980296058300296
sI1109
F1.980296058300296
sI1110
F1.980296058300296
sI1111
F1.980296058300296
sI1112
F1.980296058300296
sI1113
F1.980296058300296
sI1114
F1.980296058300296
sI1115
F1.980296058300296
sI1116
F1.980296058300296
sI1117
F1.980296058300296
sI1118
F1.980296058300296
sI1119
F1.980296058300296
sI1120
F1.980296058300296
sI1121
F1.980296058300296
sI1122
F1.980296058300296
sI1123
F1.980296058300296
sI1124
F1.980296058300296
sI1125
F1.980296058300296
sI1126
F1.980296058300296
sI1127
F1.980296058300296
sI1128
F1.980296058300296
sI1129
F1.980296058300296
sI1130
F1.980296058300296
sI1131
F1.980296058300296
sI1132
F1.980296058300296
sI1133
F1.980296058300296
sI1134
F1.980296058300296
sI1135
F1.980296058300296
sI1136
F1.980296058300296
sI1137
F1.980296058300296
sI1138
F1.980296058300296
sI1139
F1.980296058300296
sI1140
F1.980296058300296
sI1141
F1.980296058300296
sI1142
F1.980296058300296
sI1143
F1.980296058300296
sI1144
F1.980296058300296
sI1145
F1.980296058300296
sI1146
F1.980296058300296
sI1147
F1.980296058300296
sI1148
F1.980296058300296
sI1149
F1.980296058300296
sI1150
F1.980296058300296
sI1151
F1.980296058300296
sI1152
F1.980296058300296
sI1153
F1.980296058300296
sI1154
F1.980296058300296
sI1155
F1.980296058300296
sI1156
F1.980296058300296
sI1157
F1.980296058300296
sI1158
F1.980296058300296
sI1159
F1.980296058300296
sI1160
F1.980296058300296
sI1161
F1.980296058300296
sI1162
F1.980296058300296
sI1163
F1.980296058300296
sI1164
F1.980296058300296
sI1165
F1.980296058300296
sI1166
F1.980296058300296
sI1167
F1.980296058300296
sI1168
F1.980296058300296
sI1169
F1.980296058300296
sI1170
F1.980296058300296
sI1171
F1.980296058300296
sI1172
F1.980296058300296
sI1173
F1.980296058300296
sI1174
F1.980296058300296
sI1175
F1.980296058300296
sI1176
F1.980296058300296
sI1177
F1.980296058300296
sI1178
F1.980296058300296
sI1179
F1.980296058300296
sI1180
F1.980296058300296
sI1181
F1.980296058300296
sI1182
F1.980296058300296
sI1183
F1.980296058300296
sI1184
F1.980296058300296
sI1185
F1.980296058300296
sI1186
F1.980296058300296
sI1187
F1.980296058300296
sI1188
F1.980296058300296
sI1189
F1.980296058300296
sI1190
F1.980296058300296
sI1191
F1.980296058300296
sI1192
F1.980296058300296
sI1193
F1.980296058300296
sI1194
F1.980296058300296
sI1195
F1.980296058300296
sI1196
F1.980296058300296
sI1197
F1.980296058300296
sI1198
F1.980296058300296
sI1199
F1.980296058300296
sI1200
F1.980296058300296
sI1201
F1.980296058300296
sI1202
F1.980296058300296
sI1203
F1.980296058300296
sI1204
F1.980296058300296
sI1205
F1.980296058300296
sI1206
F1.980296058300296
sI1207
F1.980296058300296
sI1208
F1.980296058300296
sI1209
F1.980296058300296
sI1210
F1.980296058300296
sI1211
F1.980296058300296
sI1212
F1.980296058300296
sI1213
F1.980296058300296
sI1214
F1.980296058300296
sI1215
F1.980296058300296
sI1216
F1.980296058300296
sI1217
F1.980296058300296
sI1218
F1.980296058300296
sI1219
F1.980296058300296
sI1220
F1.9290633734994043
sI1221
F1.9290633734994043
sI1222
F1.9290633734994043
sI1223
F1.9290633734994043
sI1224
F1.9290633734994043
sI1225
F1.9290633734994043
sI1226
F1.9290633734994043
sI1227
F1.9290633734994043
sI1228
F1.9290633734994043
sI1229
F1.9290633734994043
sI1230
F1.9290633734994043
sI1231
F1.9290633734994043
sI1232
F1.9290633734994043
sI1233
F1.9290633734994043
sI1234
F1.9290633734994043
sI1235
F1.9290633734994043
sI1236
F1.9290633734994043
sI1237
F1.9290633734994043
sI1238
F1.9290633734994043
sI1239
F1.9290633734994043
sI1240
F1.9290633734994043
sI1241
F1.9290633734994043
sI1242
F1.9290633734994043
sI1243
F1.9290633734994043
sI1244
F1.9290633734994043
sI1245
F1.9290633734994043
sI1246
F1.9290633734994043
sI1247
F1.9290633734994043
sI1248
F1.9290633734994043
sI1249
F1.9290633734994043
sI1250
F1.9290633734994043
sI1251
F1.9290633734994043
sI1252
F1.9290633734994043
sI1253
F1.9290633734994043
sI1254
F1.9290633734994043
sI1255
F1.9290633734994043
sI1256
F1.9290633734994043
sI1257
F1.9290633734994043
sI1258
F1.9290633734994043
sI1259
F1.9290633734994043
sI1260
F1.9290633734994043
sI1261
F1.9290633734994043
sI1262
F1.9290633734994043
sI1263
F1.9290633734994043
sI1264
F1.9290633734994043
sI1265
F1.9290633734994043
sI1266
F1.9290633734994043
sI1267
F1.9290633734994043
sI1268
F1.9290633734994043
sI1269
F1.9290633734994043
sI1270
F1.9290633734994043
sI1271
F1.9290633734994043
sI1272
F1.9290633734994043
sI1273
F1.9290633734994043
sI1274
F1.9290633734994043
sI1275
F1.9290633734994043
sI1276
F1.9290633734994043
sI1277
F1.9290633734994043
sI1278
F1.9290633734994043
sI1279
F1.9290633734994043
sI1280
F1.9290633734994043
sI1281
F1.9290633734994043
sI1282
F1.9290633734994043
sI1283
F1.9290633734994043
sI1284
F1.9290633734994043
sI1285
F1.9290633734994043
sI1286
F1.9290633734994043
sI1287
F1.9290633734994043
sI1288
F1.9290633734994043
sI1289
F1.9290633734994043
sI1290
F1.9290633734994043
sI1291
F1.9290633734994043
sI1292
F1.9290633734994043
sI1293
F1.9290633734994043
sI1294
F1.9290633734994043
sI1295
F1.9290633734994043
sI1296
F1.9290633734994043
sI1297
F1.9290633734994043
sI1298
F1.9290633734994043
sI1299
F1.9290633734994043
sI1300
F1.9290633734994043
sI1301
F1.9290633734994043
sI1302
F1.9290633734994043
sI1303
F1.9290633734994043
sI1304
F1.9290633734994043
sI1305
F1.9290633734994043
sI1306
F1.9290633734994043
sI1307
F1.9290633734994043
sI1308
F1.9290633734994043
sI1309
F1.9290633734994043
sI1310
F1.9290633734994043
sI1311
F1.9290633734994043
sI1312
F1.9290633734994043
sI1313
F1.9290633734994043
sI1314
F1.9290633734994043
sI1315
F1.9290633734994043
sI1316
F1.9290633734994043
sI1317
F1.9290633734994043
sI1318
F1.9290633734994043
sI1319
F1.9290633734994043
sI1320
F1.9290633734994043
sI1321
F1.9290633734994043
sI1322
F1.9290633734994043
sI1323
F1.9290633734994043
sI1324
F1.9290633734994043
sI1325
F1.9290633734994043
sI1326
F1.9290633734994043
sI1327
F1.9290633734994043
sI1328
F1.9290633734994043
sI1329
F1.9290633734994043
sI1330
F1.9290633734994043
sI1331
F1.9290633734994043
sI1332
F1.9290633734994043
sI1333
F1.9290633734994043
sI1334
F1.9290633734994043
sI1335
F1.9290633734994043
sI1336
F1.9290633734994043
sI1337
F1.9290633734994043
sI1338
F1.9290633734994043
sI1339
F1.9290633734994043
sI1340
F1.9290633734994043
sI1341
F1.9290633734994043
sI1342
F1.9290633734994043
sI1343
F1.9290633734994043
sI1344
F1.9290633734994043
sI1345
F1.9290633734994043
sI1346
F1.9290633734994043
sI1347
F1.9290633734994043
sI1348
F1.9290633734994043
sI1349
F1.9290633734994043
sI1350
F1.9290633734994043
sI1351
F1.9290633734994043
sI1352
F1.9290633734994043
sI1353
F1.9290633734994043
sI1354
F1.9290633734994043
sI1355
F1.9290633734994043
sI1356
F1.9290633734994043
sI1357
F1.9290633734994043
sI1358
F1.9290633734994043
sI1359
F1.9290633734994043
sI1360
F1.9290633734994043
sI1361
F1.9290633734994043
sI1362
F1.9290633734994043
sI1363
F1.9290633734994043
sI1364
F1.9290633734994043
sI1365
F1.9290633734994043
sI1366
F1.9290633734994043
sI1367
F1.9290633734994043
sI1368
F1.9290633734994043
sI1369
F1.9290633734994043
sI1370
F1.9290633734994043
sI1371
F1.9290633734994043
sI1372
F1.9290633734994043
sI1373
F1.9290633734994043
sI1374
F1.9290633734994043
sI1375
F1.9904701306294441
sI1376
F1.9904701306294441
sI1377
F1.9904701306294441
sI1378
F1.9904701306294441
sI1379
F1.9904701306294441
sI1380
F1.9904701306294441
sI1381
F1.9904701306294441
sI1382
F1.9904701306294441
sI1383
F1.9904701306294441
sI1384
F1.9904701306294441
sI1385
F1.9904701306294441
sI1386
F1.9904701306294441
sI1387
F1.9904701306294441
sI1388
F1.9904701306294441
sI1389
F1.9904701306294441
sI1390
F1.9904701306294441
sI1391
F1.9904701306294441
sI1392
F1.9904701306294441
sI1393
F1.9904701306294441
sI1394
F1.9904701306294441
sI1395
F1.9904701306294441
sI1396
F1.9904701306294441
sI1397
F1.9904701306294441
sI1398
F1.9904701306294441
sI1399
F1.9904701306294441
sI1400
F1.9904701306294441
sI1401
F1.9904701306294441
sI1402
F1.9904701306294441
sI1403
F1.9904701306294441
sI1404
F1.9904701306294441
sI1405
F1.9904701306294441
sI1406
F1.9904701306294441
sI1407
F1.9904701306294441
sI1408
F1.9904701306294441
sI1409
F1.9904701306294441
sI1410
F1.9904701306294441
sI1411
F1.9904701306294441
sI1412
F1.9904701306294441
sI1413
F1.9904701306294441
sI1414
F1.9904701306294441
sI1415
F1.9904701306294441
sI1416
F1.9904701306294441
sI1417
F1.9904701306294441
sI1418
F1.9904701306294441
sI1419
F1.9904701306294441
sI1420
F1.9904701306294441
sI1421
F1.9904701306294441
sI1422
F1.9904701306294441
sI1423
F1.9904701306294441
sI1424
F1.9904701306294441
sI1425
F1.9904701306294441
sI1426
F1.9904701306294441
sI1427
F1.9904701306294441
sI1428
F1.9904701306294441
sI1429
F1.9904701306294441
sI1430
F1.9904701306294441
sI1431
F1.9904701306294441
sI1432
F1.9904701306294441
sI1433
F1.9904701306294441
sI1434
F1.9904701306294441
sI1435
F1.9904701306294441
sI1436
F1.9904701306294441
sI1437
F1.9904701306294441
sI1438
F1.9904701306294441
sI1439
F1.9904701306294441
sI1440
F1.9904701306294441
sI1441
F1.9904701306294441
sI1442
F1.9904701306294441
sI1443
F1.9904701306294441
sI1444
F1.9904701306294441
sI1445
F1.9904701306294441
sI1446
F1.9904701306294441
sI1447
F1.9904701306294441
sI1448
F1.9904701306294441
sI1449
F1.9904701306294441
sI1450
F1.9904701306294441
sI1451
F1.9904701306294441
sI1452
F1.9904701306294441
sI1453
F1.9904701306294441
sI1454
F1.9904701306294441
sI1455
F1.9904701306294441
sI1456
F1.9904701306294441
sI1457
F1.9904701306294441
sI1458
F1.9904701306294441
sI1459
F1.9904701306294441
sI1460
F1.9904701306294441
sI1461
F1.9904701306294441
sI1462
F1.9904701306294441
sI1463
F1.9904701306294441
sI1464
F1.9904701306294441
sI1465
F1.9904701306294441
sI1466
F1.9904701306294441
sI1467
F1.9904701306294441
sI1468
F1.9904701306294441
sI1469
F1.9904701306294441
sI1470
F1.9904701306294441
sI1471
F1.9904701306294441
sI1472
F1.9904701306294441
sI1473
F1.9904701306294441
sI1474
F1.9904701306294441
sI1475
F1.9904701306294441
sI1476
F1.9904701306294441
sI1477
F1.9904701306294441
sI1478
F1.9904701306294441
sI1479
F1.9904701306294441
sI1480
F1.9904701306294441
sI1481
F1.9904701306294441
sI1482
F1.9904701306294441
sI1483
F1.9904701306294441
sI1484
F1.9904701306294441
sI1485
F1.9904701306294441
sI1486
F1.9904701306294441
sI1487
F1.9904701306294441
sI1488
F1.9904701306294441
sI1489
F1.9904701306294441
sI1490
F1.9904701306294441
sI1491
F1.9904701306294441
sI1492
F1.9904701306294441
sI1493
F1.9904701306294441
sI1494
F1.9904701306294441
sI1495
F1.9904701306294441
sI1496
F1.9904701306294441
sI1497
F1.9904701306294441
sI1498
F1.9904701306294441
sI1499
F1.9904701306294441
sI1500
F1.9904701306294441
sI1501
F1.9904701306294441
sI1502
F1.9904701306294441
sI1503
F1.9904701306294441
sI1504
F1.9904701306294441
sI1505
F1.9904701306294441
sI1506
F1.9904701306294441
sI1507
F1.9904701306294441
sI1508
F1.9904701306294441
sI1509
F1.9904701306294441
sI1510
F1.9904701306294441
sI1511
F1.9904701306294441
sI1512
F1.9904701306294441
sI1513
F1.9904701306294441
sI1514
F1.9904701306294441
sI1515
F1.9904701306294441
sI1516
F1.9904701306294441
sI1517
F1.9904701306294441
sI1518
F1.9904701306294441
sI1519
F1.9904701306294441
sI1520
F1.9904701306294441
sI1521
F1.9904701306294441
sI1522
F1.9904701306294441
sI1523
F1.9904701306294441
sI1524
F1.9904701306294441
sI1525
F1.9904701306294441
sI1526
F1.9904701306294441
sI1527
F1.9904701306294441
sI1528
F1.9904701306294441
sI1529
F1.9904701306294441
sI1530
F1.9904701306294441
sI1531
F1.9904701306294441
sI1532
F1.9904701306294441
sI1533
F1.9904701306294441
sI1534
F1.9904701306294441
sI1535
F1.9904701306294441
sI1536
F1.9904701306294441
sI1537
F1.9904701306294441
sI1538
F1.9904701306294441
sI1539
F1.9904701306294441
sI1540
F1.9904701306294441
sI1541
F1.9904701306294441
sI1542
F1.9904701306294441
sI1543
F1.9904701306294441
sI1544
F1.9904701306294441
sI1545
F1.9904701306294441
sI1546
F1.9904701306294441
sI1547
F1.9904701306294441
sI1548
F1.9904701306294441
sI1549
F1.9904701306294441
sI1550
F1.9904701306294441
sI1551
F1.9904701306294441
sI1552
F1.9904701306294441
sI1553
F1.9904701306294441
sI1554
F1.9904701306294441
sI1555
F1.9904701306294441
sI1556
F1.9904701306294441
sI1557
F1.9904701306294441
sI1558
F1.9904701306294441
sI1559
F1.9904701306294441
sI1560
F1.9904701306294441
sI1561
F1.9904701306294441
sI1562
F1.9904701306294441
sI1563
F1.9904701306294441
sI1564
F1.9904701306294441
sI1565
F1.9904701306294441
sI1566
F1.9904701306294441
sI1567
F1.9904701306294441
sI1568
F1.9904701306294441
sI1569
F1.9904701306294441
sI1570
F1.9904701306294441
sI1571
F1.9904701306294441
sI1572
F1.9904701306294441
sI1573
F1.9904701306294441
sI1574
F1.9904701306294441
sI1575
F1.9904701306294441
sI1576
F1.9904701306294441
sI1577
F1.9904701306294441
sI1578
F1.9904701306294441
sI1579
F1.9904701306294441
sI1580
F1.9904701306294441
sI1581
F1.9904701306294441
sI1582
F1.9904701306294441
sI1583
F1.9904701306294441
sI1584
F1.9904701306294441
sI1585
F1.9904701306294441
sI1586
F1.9904701306294441
sI1587
F1.9904701306294441
sI1588
F1.9904701306294441
sI1589
F1.9904701306294441
sI1590
F1.9904701306294441
sI1591
F1.9904701306294441
sI1592
F1.9904701306294441
sI1593
F1.9904701306294441
sI1594
F1.9904701306294441
sI1595
F1.9904701306294441
sI1596
F1.9904701306294441
sI1597
F1.9904701306294441
sI1598
F1.9904701306294441
sI1599
F1.9904701306294441
sI1600
F1.9904701306294441
sI1601
F1.9904701306294441
sI1602
F1.9904701306294441
sI1603
F1.9904701306294441
sI1604
F1.9904701306294441
sI1605
F1.9904701306294441
sI1606
F1.9904701306294441
sI1607
F1.9582069409909333
sI1608
F1.9582069409909333
sI1609
F1.9582069409909333
sI1610
F1.9582069409909333
sI1611
F1.9582069409909333
sI1612
F1.9582069409909333
sI1613
F1.9582069409909333
sI1614
F1.9582069409909333
sI1615
F1.9582069409909333
sI1616
F1.9582069409909333
sI1617
F1.9582069409909333
sI1618
F1.9582069409909333
sI1619
F1.9582069409909333
sI1620
F1.9582069409909333
sI1621
F1.9582069409909333
sI1622
F1.9582069409909333
sI1623
F1.9582069409909333
sI1624
F1.9582069409909333
sI1625
F1.9582069409909333
sI1626
F1.9582069409909333
sI1627
F1.9582069409909333
sI1628
F1.9582069409909333
sI1629
F1.9582069409909333
sI1630
F1.9582069409909333
sI1631
F1.9582069409909333
sI1632
F1.9582069409909333
sI1633
F1.9582069409909333
sI1634
F1.9582069409909333
sI1635
F1.9582069409909333
sI1636
F1.9582069409909333
sI1637
F1.9582069409909333
sI1638
F1.9582069409909333
sI1639
F1.9582069409909333
sI1640
F1.9582069409909333
sI1641
F1.9582069409909333
sI1642
F1.9582069409909333
sI1643
F1.9582069409909333
sI1644
F1.9582069409909333
sI1645
F1.9582069409909333
sI1646
F1.9582069409909333
sI1647
F1.9582069409909333
sI1648
F1.9582069409909333
sI1649
F1.9582069409909333
sI1650
F1.9582069409909333
sI1651
F1.9582069409909333
sI1652
F1.9582069409909333
sI1653
F1.9582069409909333
sI1654
F1.9582069409909333
sI1655
F1.9582069409909333
sI1656
F1.9582069409909333
sI1657
F1.9582069409909333
sI1658
F1.9582069409909333
sI1659
F1.9582069409909333
sI1660
F1.9582069409909333
sI1661
F1.9582069409909333
sI1662
F1.9582069409909333
sI1663
F1.9582069409909333
sI1664
F1.9582069409909333
sI1665
F1.9582069409909333
sI1666
F1.9582069409909333
sI1667
F1.9582069409909333
sI1668
F1.9582069409909333
sI1669
F1.9582069409909333
sI1670
F1.9582069409909333
sI1671
F1.9582069409909333
sI1672
F1.9582069409909333
sI1673
F1.9582069409909333
sI1674
F1.9582069409909333
sI1675
F1.9582069409909333
sI1676
F1.9582069409909333
sI1677
F1.9582069409909333
sI1678
F1.9582069409909333
sI1679
F1.9582069409909333
sI1680
F1.9582069409909333
sI1681
F1.9582069409909333
sI1682
F1.9582069409909333
sI1683
F1.9582069409909333
sI1684
F1.9582069409909333
sI1685
F1.9582069409909333
sI1686
F1.9582069409909333
sI1687
F1.9582069409909333
sI1688
F1.9582069409909333
sI1689
F1.9582069409909333
sI1690
F1.9582069409909333
sI1691
F1.9582069409909333
sI1692
F1.9582069409909333
sI1693
F1.9582069409909333
sI1694
F1.9582069409909333
sI1695
F1.9582069409909333
sI1696
F1.9582069409909333
sI1697
F1.9582069409909333
sI1698
F1.9582069409909333
sI1699
F1.9582069409909333
sI1700
F1.9582069409909333
sI1701
F1.9582069409909333
sI1702
F1.9582069409909333
sI1703
F1.9582069409909333
sI1704
F1.9582069409909333
sI1705
F1.9582069409909333
sI1706
F1.9582069409909333
sI1707
F1.9582069409909333
sI1708
F1.9582069409909333
sI1709
F1.9582069409909333
sI1710
F1.9582069409909333
sI1711
F1.9582069409909333
sI1712
F1.9582069409909333
sI1713
F1.9582069409909333
sI1714
F1.9582069409909333
sI1715
F1.9582069409909333
sI1716
F1.9582069409909333
sI1717
F1.9582069409909333
sI1718
F1.9582069409909333
sI1719
F1.9582069409909333
sI1720
F1.9582069409909333
sI1721
F1.9582069409909333
sI1722
F1.9582069409909333
sI1723
F1.9582069409909333
sI1724
F1.9582069409909333
sI1725
F1.9582069409909333
sI1726
F1.9582069409909333
sI1727
F1.9582069409909333
sI1728
F1.9582069409909333
sI1729
F1.9582069409909333
sI1730
F1.9582069409909333
sI1731
F1.9582069409909333
sI1732
F1.9582069409909333
sI1733
F1.9582069409909333
sI1734
F1.9582069409909333
sI1735
F1.9582069409909333
sI1736
F1.9582069409909333
sI1737
F1.9582069409909333
sI1738
F1.9582069409909333
sI1739
F1.9582069409909333
sI1740
F1.9582069409909333
sI1741
F1.9582069409909333
sI1742
F1.9582069409909333
sI1743
F1.9582069409909333
sI1744
F1.9582069409909333
sI1745
F1.9582069409909333
sI1746
F1.9582069409909333
sI1747
F1.9582069409909333
sI1748
F1.9582069409909333
sI1749
F1.9582069409909333
sI1750
F1.9582069409909333
sI1751
F1.9582069409909333
sI1752
F1.9582069409909333
sI1753
F1.9582069409909333
sI1754
F1.9582069409909333
sI1755
F1.9582069409909333
sI1756
F1.9582069409909333
sI1757
F1.9582069409909333
sI1758
F1.9582069409909333
sI1759
F1.9582069409909333
sI1760
F1.9582069409909333
sI1761
F1.9582069409909333
sI1762
F1.9582069409909333
sI1763
F1.9582069409909333
sI1764
F1.9582069409909333
sI1765
F1.9582069409909333
sI1766
F1.9582069409909333
sI1767
F1.9582069409909333
sI1768
F1.9582069409909333
sI1769
F1.9582069409909333
sI1770
F1.9582069409909333
sI1771
F1.9582069409909333
sI1772
F1.9582069409909333
sI1773
F1.9582069409909333
sI1774
F1.9582069409909333
sI1775
F1.9582069409909333
sI1776
F1.9582069409909333
sI1777
F1.9582069409909333
sI1778
F1.9582069409909333
sI1779
F1.9582069409909333
sI1780
F1.9582069409909333
sI1781
F1.9582069409909333
sI1782
F1.9582069409909333
sI1783
F1.9582069409909333
sI1784
F1.9582069409909333
sI1785
F1.9582069409909333
sI1786
F1.9582069409909333
sI1787
F1.9582069409909333
sI1788
F1.9582069409909333
sI1789
F1.9582069409909333
sI1790
F1.9582069409909333
sI1791
F1.9582069409909333
sI1792
F1.9582069409909333
sI1793
F1.9582069409909333
sI1794
F1.9582069409909333
sI1795
F1.9582069409909333
sI1796
F1.9582069409909333
sI1797
F1.9582069409909333
sI1798
F1.9582069409909333
sI1799
F1.9582069409909333
sI1800
F1.9582069409909333
sI1801
F1.9582069409909333
sI1802
F1.9582069409909333
sI1803
F1.9582069409909333
sI1804
F1.9582069409909333
sI1805
F1.9582069409909333
sI1806
F1.9582069409909333
sI1807
F1.9582069409909333
sI1808
F1.9582069409909333
sI1809
F1.9582069409909333
sI1810
F1.9582069409909333
sI1811
F1.9582069409909333
sI1812
F1.9582069409909333
sI1813
F1.9582069409909333
sI1814
F1.9582069409909333
sI1815
F1.9582069409909333
sI1816
F1.9288896420704134
sI1817
F1.9288896420704134
sI1818
F1.9288896420704134
sI1819
F1.9288896420704134
sI1820
F1.9288896420704134
sI1821
F1.9288896420704134
sI1822
F1.9288896420704134
sI1823
F1.9288896420704134
sI1824
F1.9288896420704134
sI1825
F1.9288896420704134
sI1826
F1.9288896420704134
sI1827
F1.9288896420704134
sI1828
F1.9288896420704134
sI1829
F1.9288896420704134
sI1830
F1.9288896420704134
sI1831
F1.9288896420704134
sI1832
F1.9288896420704134
sI1833
F1.9288896420704134
sI1834
F1.9288896420704134
sI1835
F1.9288896420704134
sI1836
F1.9288896420704134
sI1837
F1.9288896420704134
sI1838
F1.9288896420704134
sI1839
F1.9288896420704134
sI1840
F1.9288896420704134
sI1841
F1.9288896420704134
sI1842
F1.9288896420704134
sI1843
F1.9288896420704134
sI1844
F1.9288896420704134
sI1845
F1.9288896420704134
sI1846
F1.9288896420704134
sI1847
F1.9288896420704134
sI1848
F1.9288896420704134
sI1849
F1.9288896420704134
sI1850
F1.9288896420704134
sI1851
F1.9288896420704134
sI1852
F1.9288896420704134
sI1853
F1.9288896420704134
sI1854
F1.9288896420704134
sI1855
F1.9288896420704134
sI1856
F1.9288896420704134
sI1857
F1.9288896420704134
sI1858
F1.9288896420704134
sI1859
F1.9288896420704134
sI1860
F1.9288896420704134
sI1861
F1.9288896420704134
sI1862
F1.9288896420704134
sI1863
F1.9288896420704134
sI1864
F1.9288896420704134
sI1865
F1.9288896420704134
sI1866
F1.9288896420704134
sI1867
F1.9288896420704134
sI1868
F1.9288896420704134
sI1869
F1.9288896420704134
sI1870
F1.9288896420704134
sI1871
F1.9288896420704134
sI1872
F1.9288896420704134
sI1873
F1.9288896420704134
sI1874
F1.9288896420704134
sI1875
F1.9288896420704134
sI1876
F1.9288896420704134
sI1877
F1.9288896420704134
sI1878
F1.9288896420704134
sI1879
F1.9288896420704134
sI1880
F1.9288896420704134
sI1881
F1.9288896420704134
sI1882
F1.9288896420704134
sI1883
F1.9288896420704134
sI1884
F1.9288896420704134
sI1885
F1.9288896420704134
sI1886
F1.9288896420704134
sI1887
F1.9288896420704134
sI1888
F1.9288896420704134
sI1889
F1.9288896420704134
sI1890
F1.9288896420704134
sI1891
F1.9288896420704134
sI1892
F1.9288896420704134
sI1893
F1.9288896420704134
sI1894
F1.9288896420704134
sI1895
F1.9288896420704134
sI1896
F1.9288896420704134
sI1897
F1.9288896420704134
sI1898
F1.9288896420704134
sI1899
F1.9288896420704134
sI1900
F1.9288896420704134
sI1901
F1.9288896420704134
sI1902
F1.9288896420704134
sI1903
F1.9288896420704134
sI1904
F1.9288896420704134
sI1905
F1.9288896420704134
sI1906
F1.9288896420704134
sI1907
F1.9288896420704134
sI1908
F1.9288896420704134
sI1909
F1.9288896420704134
sI1910
F1.9288896420704134
sI1911
F1.9288896420704134
sI1912
F1.9288896420704134
sI1913
F1.9288896420704134
sI1914
F1.9288896420704134
sI1915
F1.9288896420704134
sI1916
F1.9288896420704134
sI1917
F1.9288896420704134
sI1918
F1.9288896420704134
sI1919
F1.9288896420704134
sI1920
F1.9288896420704134
sI1921
F1.9288896420704134
sI1922
F1.9288896420704134
sI1923
F1.9288896420704134
sI1924
F1.9288896420704134
sI1925
F1.9288896420704134
sI1926
F1.9288896420704134
sI1927
F1.9288896420704134
sI1928
F1.9288896420704134
sI1929
F1.9288896420704134
sI1930
F1.9288896420704134
sI1931
F1.9288896420704134
sI1932
F1.9288896420704134
sI1933
F1.9288896420704134
sI1934
F1.9288896420704134
sI1935
F1.9288896420704134
sI1936
F1.9288896420704134
sI1937
F1.9288896420704134
sI1938
F1.9288896420704134
sI1939
F1.9288896420704134
sI1940
F1.9288896420704134
sI1941
F1.9288896420704134
sI1942
F1.9288896420704134
sI1943
F1.9288896420704134
sI1944
F1.9288896420704134
sI1945
F1.9288896420704134
sI1946
F1.9288896420704134
sI1947
F1.9288896420704134
sI1948
F1.9288896420704134
sI1949
F1.9288896420704134
sI1950
F1.9288896420704134
sI1951
F1.9288896420704134
sI1952
F1.9288896420704134
sI1953
F1.9288896420704134
sI1954
F1.9288896420704134
sI1955
F1.9288896420704134
sI1956
F1.9288896420704134
sI1957
F1.9288896420704134
sI1958
F1.9288896420704134
sI1959
F1.9288896420704134
sI1960
F1.9288896420704134
sI1961
F1.9288896420704134
sI1962
F1.9288896420704134
sI1963
F1.9288896420704134
sI1964
F1.9288896420704134
sI1965
F1.9288896420704134
sI1966
F1.9288896420704134
sI1967
F1.9288896420704134
sI1968
F1.9288896420704134
sI1969
F1.9288896420704134
sI1970
F1.9288896420704134
sI1971
F1.9288896420704134
sI1972
F1.9288896420704134
sI1973
F1.9288896420704134
sI1974
F1.9288896420704134
sI1975
F1.9288896420704134
sI1976
F1.9288896420704134
sI1977
F1.9288896420704134
sI1978
F1.9288896420704134
sI1979
F1.9288896420704134
sI1980
F1.9288896420704134
sI1981
F1.9288896420704134
sI1982
F1.9288896420704134
sI1983
F1.9288896420704134
sI1984
F1.9288896420704134
sI1985
F1.9288896420704134
sI1986
F1.9288896420704134
sI1987
F1.9288896420704134
sI1988
F1.9288896420704134
sI1989
F1.9288896420704134
sI1990
F1.9288896420704134
sI1991
F1.9288896420704134
sI1992
F1.9288896420704134
sI1993
F1.9288896420704134
sI1994
F1.9288896420704134
sI1995
F1.9288896420704134
sI1996
F1.9288896420704134
sI1997
F1.9288896420704134
sI1998
F1.9288896420704134
sI1999
F1.9288896420704134
sI2000
F1.9288896420704134
sI2001
F1.9288896420704134
sI2002
F1.9288896420704134
sI2003
F1.9288896420704134
sI2004
F1.9288896420704134
sI2005
F1.9288896420704134
sI2006
F1.9288896420704134
sI2007
F1.9288896420704134
sI2008
F1.9288896420704134
sI2009
F1.9288896420704134
sI2010
F1.9288896420704134
sI2011
F1.9288896420704134
sI2012
F1.9288896420704134
sI2013
F1.9288896420704134
sI2014
F1.9288896420704134
sI2015
F1.9288896420704134
sI2016
F1.9288896420704134
sI2017
F1.9288896420704134
sI2018
F1.9288896420704134
sI2019
F1.9288896420704134
sI2020
F1.9288896420704134
sI2021
F1.9288896420704134
sI2022
F1.9288896420704134
sI2023
F1.9288896420704134
sI2024
F1.9288896420704134
sI2025
F1.9288896420704134
sI2026
F1.9288896420704134
sI2027
F1.9288896420704134
sI2028
F1.9288896420704134
sI2029
F1.9288896420704134
sI2030
F1.9288896420704134
sI2031
F1.9288896420704134
sI2032
F1.9288896420704134
sI2033
F1.9288896420704134
sI2034
F1.9288896420704134
sI2035
F1.9288896420704134
sI2036
F1.9288896420704134
sI2037
F1.9288896420704134
sI2038
F1.9288896420704134
sI2039
F1.9288896420704134
sI2040
F1.9288896420704134
sI2041
F1.9288896420704134
sI2042
F1.9288896420704134
sI2043
F1.9288896420704134
sI2044
F1.9288896420704134
sI2045
F1.9288896420704134
sI2046
F1.9288896420704134
sI2047
F1.9288896420704134
sI2048
F1.9288896420704134
sI2049
F1.9288896420704134
sI2050
F1.9288896420704134
sI2051
F1.9288896420704134
sI2052
F1.9288896420704134
sI2053
F1.9288896420704134
sI2054
F1.9288896420704134
sI2055
F1.9288896420704134
sI2056
F1.9288896420704134
sI2057
F1.9288896420704134
sI2058
F1.9288896420704134
sI2059
F1.9288896420704134
sI2060
F1.9288896420704134
sI2061
F1.9288896420704134
sI2062
F1.9288896420704134
sI2063
F1.9288896420704134
sI2064
F1.9288896420704134
sI2065
F1.9288896420704134
sI2066
F1.9288896420704134
sI2067
F1.9288896420704134
sI2068
F1.9288896420704134
sI2069
F1.9288896420704134
sI2070
F1.9288896420704134
sI2071
F1.9288896420704134
sI2072
F1.9288896420704134
sI2073
F1.9288896420704134
sI2074
F1.9288896420704134
sI2075
F1.9288896420704134
sI2076
F1.9288896420704134
sI2077
F1.9288896420704134
sI2078
F1.9288896420704134
sI2079
F1.9288896420704134
sI2080
F1.9288896420704134
sI2081
F1.9288896420704134
sI2082
F1.9288896420704134
sI2083
F1.9288896420704134
sI2084
F1.9288896420704134
sI2085
F1.9288896420704134
sI2086
F1.9288896420704134
sI2087
F1.9288896420704134
sI2088
F1.9288896420704134
sI2089
F1.9288896420704134
sI2090
F1.9288896420704134
sI2091
F1.9288896420704134
sI2092
F1.9288896420704134
sI2093
F1.9288896420704134
sI2094
F1.9288896420704134
sI2095
F1.9966741090592044
sI2096
F1.9966741090592044
sI2097
F1.9966741090592044
sI2098
F1.9966741090592044
sI2099
F1.9966741090592044
sI2100
F1.9966741090592044
sI2101
F1.9966741090592044
sI2102
F1.9966741090592044
sI2103
F1.9966741090592044
sI2104
F1.9966741090592044
sI2105
F1.9966741090592044
sI2106
F1.9966741090592044
sI2107
F1.9966741090592044
sI2108
F1.9966741090592044
sI2109
F1.9966741090592044
sI2110
F1.9966741090592044
sI2111
F1.9966741090592044
sI2112
F1.9966741090592044
sI2113
F1.9966741090592044
sI2114
F1.9966741090592044
sI2115
F1.9966741090592044
sI2116
F1.9966741090592044
sI2117
F1.9966741090592044
sI2118
F1.9966741090592044
sI2119
F1.9966741090592044
sI2120
F1.9966741090592044
sI2121
F1.9966741090592044
sI2122
F1.9966741090592044
sI2123
F1.9966741090592044
sI2124
F1.9966741090592044
sI2125
F1.9966741090592044
sI2126
F1.9966741090592044
sI2127
F1.9966741090592044
sI2128
F1.9966741090592044
sI2129
F1.9966741090592044
sI2130
F1.9966741090592044
sI2131
F1.9966741090592044
sI2132
F1.9966741090592044
sI2133
F1.9966741090592044
sI2134
F1.9966741090592044
sI2135
F1.9966741090592044
sI2136
F1.9966741090592044
sI2137
F1.9966741090592044
sI2138
F1.9966741090592044
sI2139
F1.9966741090592044
sI2140
F1.9966741090592044
sI2141
F1.9966741090592044
sI2142
F1.9966741090592044
sI2143
F1.9966741090592044
sI2144
F1.9966741090592044
sI2145
F1.9966741090592044
sI2146
F1.9966741090592044
sI2147
F1.9966741090592044
sI2148
F1.9966741090592044
sI2149
F1.9966741090592044
sI2150
F1.9966741090592044
sI2151
F1.9966741090592044
sI2152
F1.9230505195961967
sI2153
F1.9230505195961967
sI2154
F1.9230505195961967
sI2155
F1.9230505195961967
sI2156
F1.9230505195961967
sI2157
F1.9230505195961967
sI2158
F1.9230505195961967
sI2159
F1.9230505195961967
sI2160
F1.9230505195961967
sI2161
F1.9230505195961967
sI2162
F1.9230505195961967
sI2163
F1.9230505195961967
sI2164
F1.9230505195961967
sI2165
F1.9230505195961967
sI2166
F1.9230505195961967
sI2167
F1.9230505195961967
sI2168
F1.9230505195961967
sI2169
F1.9230505195961967
sI2170
F1.9230505195961967
sI2171
F1.9230505195961967
sI2172
F1.9230505195961967
sI2173
F1.9230505195961967
sI2174
F1.9230505195961967
sI2175
F1.9230505195961967
sI2176
F1.9230505195961967
sI2177
F1.9230505195961967
sI2178
F1.9230505195961967
sI2179
F1.9230505195961967
sI2180
F1.9230505195961967
sI2181
F1.9230505195961967
sI2182
F1.9230505195961967
sI2183
F1.9230505195961967
sI2184
F1.9230505195961967
sI2185
F1.9230505195961967
sI2186
F1.9230505195961967
sI2187
F1.9230505195961967
sI2188
F1.9230505195961967
sI2189
F1.9230505195961967
sI2190
F1.9230505195961967
sI2191
F1.9230505195961967
sI2192
F1.9230505195961967
sI2193
F1.9230505195961967
sI2194
F1.9230505195961967
sI2195
F1.9230505195961967
sI2196
F1.9230505195961967
sI2197
F1.9230505195961967
sI2198
F1.9230505195961967
sI2199
F1.9230505195961967
sI2200
F1.9230505195961967
sI2201
F1.9230505195961967
sI2202
F1.9230505195961967
sI2203
F1.9230505195961967
sI2204
F1.9230505195961967
sI2205
F1.9230505195961967
sI2206
F1.9230505195961967
sI2207
F1.9230505195961967
sI2208
F1.9230505195961967
sI2209
F1.9230505195961967
sI2210
F1.9230505195961967
sI2211
F1.9230505195961967
sI2212
F1.9230505195961967
sI2213
F1.9230505195961967
sI2214
F1.9230505195961967
sI2215
F1.9230505195961967
sI2216
F1.9230505195961967
sI2217
F1.9230505195961967
sI2218
F1.9230505195961967
sI2219
F1.9230505195961967
sI2220
F1.9230505195961967
sI2221
F1.9230505195961967
sI2222
F1.9230505195961967
sI2223
F1.9230505195961967
sI2224
F1.9230505195961967
sI2225
F1.9230505195961967
sI2226
F1.9230505195961967
sI2227
F1.9230505195961967
sI2228
F1.9230505195961967
sI2229
F1.9230505195961967
sI2230
F1.9230505195961967
sI2231
F1.9230505195961967
sI2232
F1.9230505195961967
sI2233
F1.9230505195961967
sI2234
F1.9230505195961967
sI2235
F1.9230505195961967
sI2236
F1.9230505195961967
sI2237
F1.9230505195961967
sI2238
F1.9930167663939924
sI2239
F1.9930167663939924
sI2240
F1.9398256184522911
sI2241
F1.9398256184522911
sI2242
F1.9398256184522911
sI2243
F1.9398256184522911
sI2244
F1.9398256184522911
sI2245
F1.9398256184522911
sI2246
F1.9398256184522911
sI2247
F1.9398256184522911
sI2248
F1.9398256184522911
sI2249
F1.9398256184522911
sI2250
F1.9398256184522911
sI2251
F1.9398256184522911
sI2252
F1.9398256184522911
sI2253
F1.9398256184522911
sI2254
F1.9398256184522911
sI2255
F1.9398256184522911
sI2256
F1.9398256184522911
sI2257
F1.9398256184522911
sI2258
F1.9398256184522911
sI2259
F1.9398256184522911
sI2260
F1.9398256184522911
sI2261
F1.9398256184522911
sI2262
F1.9398256184522911
sI2263
F1.9398256184522911
sI2264
F1.9398256184522911
sI2265
F1.9398256184522911
sI2266
F1.9398256184522911
sI2267
F1.9398256184522911
sI2268
F1.9398256184522911
sI2269
F1.9398256184522911
sI2270
F1.9398256184522911
sI2271
F1.9398256184522911
sI2272
F1.9398256184522911
sI2273
F1.9398256184522911
sI2274
F1.9398256184522911
sI2275
F1.9398256184522911
sI2276
F1.9398256184522911
sI2277
F1.9398256184522911
sI2278
F1.9398256184522911
sI2279
F1.9398256184522911
sI2280
F1.9398256184522911
sI2281
F1.9398256184522911
sI2282
F1.9398256184522911
sI2283
F1.9398256184522911
sI2284
F1.9398256184522911
sI2285
F1.9398256184522911
sI2286
F1.9398256184522911
sI2287
F1.9398256184522911
sI2288
F1.9398256184522911
sI2289
F1.9398256184522911
sI2290
F1.9398256184522911
sI2291
F1.9398256184522911
sI2292
F1.9398256184522911
sI2293
F1.9398256184522911
sI2294
F1.9398256184522911
sI2295
F1.9398256184522911
sI2296
F1.9398256184522911
sI2297
F1.9398256184522911
sI2298
F1.9398256184522911
sI2299
F1.9398256184522911
sI2300
F1.9398256184522911
sI2301
F1.9398256184522911
sI2302
F1.9398256184522911
sI2303
F1.9398256184522911
sI2304
F1.9398256184522911
sI2305
F1.9398256184522911
sI2306
F1.9398256184522911
sI2307
F1.9398256184522911
sI2308
F1.9398256184522911
sI2309
F1.9398256184522911
sI2310
F1.9398256184522911
sI2311
F1.9398256184522911
sI2312
F1.9398256184522911
sI2313
F1.9398256184522911
sI2314
F1.9398256184522911
sI2315
F1.9398256184522911
sI2316
F1.9398256184522911
sI2317
F1.9398256184522911
sI2318
F1.9398256184522911
sI2319
F1.9398256184522911
sI2320
F1.9398256184522911
sI2321
F1.9398256184522911
sI2322
F1.9398256184522911
sI2323
F1.9398256184522911
sI2324
F1.9398256184522911
sI2325
F1.9398256184522911
sI2326
F1.9398256184522911
sI2327
F1.9398256184522911
sI2328
F1.9398256184522911
sI2329
F1.9398256184522911
sI2330
F1.9398256184522911
sI2331
F1.9398256184522911
sI2332
F1.9398256184522911
sI2333
F1.9398256184522911
sI2334
F1.9398256184522911
sI2335
F1.9398256184522911
sI2336
F1.9398256184522911
sI2337
F1.9398256184522911
sI2338
F1.9398256184522911
sI2339
F1.9398256184522911
sI2340
F1.9398256184522911
sI2341
F1.9398256184522911
sI2342
F1.9398256184522911
sI2343
F1.9398256184522911
sI2344
F1.9398256184522911
sI2345
F1.9398256184522911
sI2346
F1.9398256184522911
sI2347
F1.9398256184522911
sI2348
F1.9398256184522911
sI2349
F1.9398256184522911
sI2350
F1.9398256184522911
sI2351
F1.9398256184522911
sI2352
F1.9398256184522911
sI2353
F1.9398256184522911
sI2354
F1.9398256184522911
sI2355
F1.9398256184522911
sI2356
F1.9398256184522911
sI2357
F1.9398256184522911
sI2358
F1.9398256184522911
sI2359
F1.9398256184522911
sI2360
F1.9398256184522911
sI2361
F1.9398256184522911
sI2362
F1.9398256184522911
sI2363
F1.9398256184522911
sI2364
F1.9398256184522911
sI2365
F1.9398256184522911
sI2366
F1.9398256184522911
sI2367
F1.9398256184522911
sI2368
F1.9398256184522911
sI2369
F1.9398256184522911
sI2370
F1.9398256184522911
sI2371
F1.9398256184522911
sI2372
F1.9398256184522911
sI2373
F1.9398256184522911
sI2374
F1.9398256184522911
sI2375
F1.9398256184522911
sI2376
F1.9398256184522911
sI2377
F1.9398256184522911
sI2378
F1.9398256184522911
sI2379
F1.9398256184522911
sI2380
F1.9398256184522911
sI2381
F1.9398256184522911
sI2382
F1.9398256184522911
sI2383
F1.9398256184522911
sI2384
F1.9398256184522911
sI2385
F1.9398256184522911
sI2386
F1.9398256184522911
sI2387
F1.9398256184522911
sI2388
F1.9398256184522911
sI2389
F1.9398256184522911
sI2390
F1.9398256184522911
sI2391
F1.9398256184522911
sI2392
F1.9398256184522911
sI2393
F1.9398256184522911
sI2394
F1.9398256184522911
sI2395
F1.9398256184522911
sI2396
F1.9398256184522911
sI2397
F1.9398256184522911
sI2398
F1.9398256184522911
sI2399
F1.9398256184522911
sI2400
F1.9398256184522911
sI2401
F1.9398256184522911
sI2402
F1.9398256184522911
sI2403
F1.9398256184522911
sI2404
F1.9398256184522911
sI2405
F1.9398256184522911
sI2406
F1.9398256184522911
sI2407
F1.9398256184522911
sI2408
F1.9398256184522911
sI2409
F1.9398256184522911
sI2410
F1.9398256184522911
sI2411
F1.9398256184522911
sI2412
F1.9398256184522911
sI2413
F1.9398256184522911
sI2414
F1.9110364726991578
sI2415
F1.9110364726991578
sI2416
F1.9110364726991578
sI2417
F1.9110364726991578
sI2418
F1.9110364726991578
sI2419
F1.9110364726991578
sI2420
F1.9110364726991578
sI2421
F1.9110364726991578
sI2422
F1.9110364726991578
sI2423
F1.9110364726991578
sI2424
F1.9110364726991578
sI2425
F1.9110364726991578
sI2426
F1.9110364726991578
sI2427
F1.9110364726991578
sI2428
F1.9110364726991578
sI2429
F1.9110364726991578
sI2430
F1.9110364726991578
sI2431
F1.9110364726991578
sI2432
F1.9110364726991578
sI2433
F1.9110364726991578
sI2434
F1.9110364726991578
sI2435
F1.9110364726991578
sI2436
F1.9110364726991578
sI2437
F1.9110364726991578
sI2438
F1.9110364726991578
sI2439
F1.9110364726991578
sI2440
F1.9110364726991578
sI2441
F1.9110364726991578
sI2442
F1.9110364726991578
sI2443
F1.9110364726991578
sI2444
F1.9110364726991578
sI2445
F1.9110364726991578
sI2446
F1.9110364726991578
sI2447
F1.9110364726991578
sI2448
F1.9110364726991578
sI2449
F1.9110364726991578
sI2450
F1.9110364726991578
sI2451
F1.9110364726991578
sI2452
F1.9110364726991578
sI2453
F1.9110364726991578
sI2454
F1.9110364726991578
sI2455
F1.9110364726991578
sI2456
F1.9110364726991578
sI2457
F1.9110364726991578
sI2458
F1.9110364726991578
sI2459
F1.9110364726991578
sI2460
F1.9110364726991578
sI2461
F1.9110364726991578
sI2462
F1.9110364726991578
sI2463
F1.9110364726991578
sI2464
F1.9110364726991578
sI2465
F1.9110364726991578
sI2466
F1.9110364726991578
sI2467
F1.9110364726991578
sI2468
F1.9110364726991578
sI2469
F1.9110364726991578
sI2470
F1.9110364726991578
sI2471
F1.9110364726991578
sI2472
F1.9110364726991578
sI2473
F1.9110364726991578
sI2474
F1.9110364726991578
sI2475
F1.9110364726991578
sI2476
F1.9110364726991578
sI2477
F1.9110364726991578
sI2478
F1.9110364726991578
sI2479
F1.9110364726991578
sI2480
F1.9110364726991578
sI2481
F1.9110364726991578
sI2482
F1.9110364726991578
sI2483
F1.9110364726991578
sI2484
F1.9110364726991578
sI2485
F1.9110364726991578
sI2486
F1.9110364726991578
sI2487
F1.9110364726991578
sI2488
F1.9110364726991578
sI2489
F1.9110364726991578
sI2490
F1.9110364726991578
sI2491
F1.9110364726991578
sI2492
F1.9110364726991578
sI2493
F1.9110364726991578
sI2494
F1.9110364726991578
sI2495
F1.9110364726991578
sI2496
F1.9110364726991578
sI2497
F1.9110364726991578
sI2498
F1.9110364726991578
sI2499
F1.9090955709524864
sI2500
F1.9090955709524864
sI2501
F1.9090955709524864
sI2502
F1.9090955709524864
sI2503
F1.9090955709524864
sI2504
F1.9090955709524864
sI2505
F1.9090955709524864
sI2506
F1.9090955709524864
sI2507
F1.9090955709524864
sI2508
F1.9090955709524864
sI2509
F1.9090955709524864
sI2510
F1.9090955709524864
sI2511
F1.9090955709524864
sI2512
F1.9090955709524864
sI2513
F1.9090955709524864
sI2514
F1.9090955709524864
sI2515
F1.9090955709524864
sI2516
F1.9090955709524864
sI2517
F1.9090955709524864
sI2518
F1.9090955709524864
sI2519
F1.9090955709524864
sI2520
F1.9090955709524864
sI2521
F1.9090955709524864
sI2522
F1.9090955709524864
sI2523
F1.9090955709524864
sI2524
F1.9090955709524864
sI2525
F1.9090955709524864
sI2526
F1.9090955709524864
sI2527
F1.9090955709524864
sI2528
F1.9090955709524864
sI2529
F1.9090955709524864
sI2530
F1.9090955709524864
sI2531
F1.9090955709524864
sI2532
F1.9090955709524864
sI2533
F1.9090955709524864
sI2534
F1.9090955709524864
sI2535
F1.9090955709524864
sI2536
F1.9090955709524864
sI2537
F1.9090955709524864
sI2538
F1.9090955709524864
sI2539
F1.9090955709524864
sI2540
F1.9090955709524864
sI2541
F1.9090955709524864
sI2542
F1.9090955709524864
sI2543
F1.9090955709524864
sI2544
F1.9090955709524864
sI2545
F1.9090955709524864
sI2546
F1.9090955709524864
sI2547
F1.9090955709524864
sI2548
F1.9090955709524864
sI2549
F1.9090955709524864
sI2550
F1.9090955709524864
sI2551
F1.9090955709524864
sI2552
F1.9090955709524864
sI2553
F1.9090955709524864
sI2554
F1.9090955709524864
sI2555
F1.9090955709524864
sI2556
F1.9090955709524864
sI2557
F1.9090955709524864
sI2558
F1.9090955709524864
sI2559
F1.9090955709524864
sI2560
F1.9090955709524864
sI2561
F1.9090955709524864
sI2562
F1.9090955709524864
sI2563
F1.9090955709524864
sI2564
F1.9090955709524864
sI2565
F1.9090955709524864
sI2566
F1.9090955709524864
sI2567
F1.9090955709524864
sI2568
F1.9090955709524864
sI2569
F1.9090955709524864
sI2570
F1.9090955709524864
sI2571
F1.9090955709524864
sI2572
F1.9090955709524864
sI2573
F1.9090955709524864
sI2574
F1.9090955709524864
sI2575
F1.9090955709524864
sI2576
F1.9090955709524864
sI2577
F1.9090955709524864
sI2578
F1.9090955709524864
sI2579
F1.9090955709524864
sI2580
F1.9090955709524864
sI2581
F1.9090955709524864
sI2582
F1.9090955709524864
sI2583
F1.9090955709524864
sI2584
F1.9090955709524864
sI2585
F1.9090955709524864
sI2586
F1.9090955709524864
sI2587
F1.9090955709524864
sI2588
F1.9090955709524864
sI2589
F1.9090955709524864
sI2590
F1.9090955709524864
sI2591
F1.9090955709524864
sI2592
F1.9090955709524864
sI2593
F1.9090955709524864
sI2594
F1.9090955709524864
sI2595
F1.9090955709524864
sI2596
F1.9090955709524864
sI2597
F1.9090955709524864
sI2598
F1.9090955709524864
sI2599
F1.9090955709524864
sI2600
F1.9090955709524864
sI2601
F1.9090955709524864
sI2602
F1.9090955709524864
sI2603
F1.9090955709524864
sI2604
F1.9090955709524864
sI2605
F1.9090955709524864
sI2606
F1.9090955709524864
sI2607
F1.9090955709524864
sI2608
F1.9090955709524864
sI2609
F1.9090955709524864
sI2610
F1.9090955709524864
sI2611
F1.9090955709524864
sI2612
F1.9090955709524864
sI2613
F1.9090955709524864
sI2614
F1.9090955709524864
sI2615
F1.9090955709524864
sI2616
F1.9090955709524864
sI2617
F1.9090955709524864
sI2618
F1.9090955709524864
sI2619
F1.9090955709524864
sI2620
F1.9090955709524864
sI2621
F1.9090955709524864
sI2622
F1.9090955709524864
sI2623
F1.9090955709524864
sI2624
F1.9090955709524864
sI2625
F1.9090955709524864
sI2626
F1.9090955709524864
sI2627
F1.9090955709524864
sI2628
F1.9090955709524864
sI2629
F1.9090955709524864
sI2630
F1.9090955709524864
sI2631
F1.9090955709524864
sI2632
F1.9090955709524864
sI2633
F1.9090955709524864
sI2634
F1.9090955709524864
sI2635
F1.9090955709524864
sI2636
F1.9090955709524864
sI2637
F1.9090955709524864
sI2638
F1.9090955709524864
sI2639
F1.9090955709524864
sI2640
F1.9090955709524864
sI2641
F1.9090955709524864
sI2642
F1.9090955709524864
sI2643
F1.9090955709524864
sI2644
F1.9090955709524864
sI2645
F1.9090955709524864
sI2646
F1.9090955709524864
sI2647
F1.9090955709524864
sI2648
F1.9090955709524864
sI2649
F1.9090955709524864
sI2650
F1.9090955709524864
sI2651
F1.9090955709524864
sI2652
F1.9090955709524864
sI2653
F1.9090955709524864
sI2654
F1.9090955709524864
sI2655
F1.9090955709524864
sI2656
F1.9090955709524864
sI2657
F1.9090955709524864
sI2658
F1.9090955709524864
sI2659
F1.9090955709524864
sI2660
F1.9090955709524864
sI2661
F1.9090955709524864
sI2662
F1.9090955709524864
sI2663
F1.9090955709524864
sI2664
F1.9090955709524864
sI2665
F1.9090955709524864
sI2666
F1.9090955709524864
sI2667
F1.9090955709524864
sI2668
F1.9090955709524864
sI2669
F1.9090955709524864
sI2670
F1.9090955709524864
sI2671
F1.9090955709524864
sI2672
F1.9090955709524864
sI2673
F1.9090955709524864
sI2674
F1.9090955709524864
sI2675
F1.9090955709524864
sI2676
F1.9090955709524864
sI2677
F1.9090955709524864
sI2678
F1.9090955709524864
sI2679
F1.9090955709524864
sI2680
F1.9090955709524864
sI2681
F1.9090955709524864
sI2682
F1.9090955709524864
sI2683
F1.9090955709524864
sI2684
F1.9090955709524864
sI2685
F1.9090955709524864
sI2686
F1.9090955709524864
sI2687
F1.9090955709524864
sI2688
F1.9090955709524864
sI2689
F1.9090955709524864
sI2690
F1.9090955709524864
sI2691
F1.9090955709524864
sI2692
F1.9090955709524864
sI2693
F1.9090955709524864
sI2694
F1.9090955709524864
sI2695
F1.9090955709524864
sI2696
F1.9090955709524864
sI2697
F1.9090955709524864
sI2698
F1.9090955709524864
sI2699
F1.9090955709524864
sI2700
F1.9090955709524864
sI2701
F1.9090955709524864
sI2702
F1.9090955709524864
sI2703
F1.9090955709524864
sI2704
F1.9090955709524864
sI2705
F1.9090955709524864
sI2706
F1.9090955709524864
sI2707
F1.9090955709524864
sI2708
F1.9090955709524864
sI2709
F1.9090955709524864
sI2710
F1.9090955709524864
sI2711
F1.9090955709524864
sI2712
F1.9090955709524864
sI2713
F1.9090955709524864
sI2714
F1.9090955709524864
sI2715
F1.9090955709524864
sI2716
F1.9090955709524864
sI2717
F1.9090955709524864
sI2718
F1.9090955709524864
sI2719
F1.9090955709524864
sI2720
F1.9090955709524864
sI2721
F1.9090955709524864
sI2722
F1.9090955709524864
sI2723
F1.9090955709524864
sI2724
F1.9090955709524864
sI2725
F1.9090955709524864
sI2726
F1.9090955709524864
sI2727
F1.9090955709524864
sI2728
F1.9090955709524864
sI2729
F1.9090955709524864
sI2730
F1.9090955709524864
sI2731
F1.9090955709524864
sI2732
F1.9090955709524864
sI2733
F1.9090955709524864
sI2734
F1.9090955709524864
sI2735
F1.9090955709524864
sI2736
F1.9090955709524864
sI2737
F1.9090955709524864
sI2738
F1.9090955709524864
sI2739
F1.9090955709524864
sI2740
F1.9090955709524864
sI2741
F1.9090955709524864
sI2742
F1.9090955709524864
sI2743
F1.9090955709524864
sI2744
F1.9090955709524864
sI2745
F1.9090955709524864
sI2746
F1.9874932362909628
sI2747
F1.9874932362909628
sI2748
F1.9874932362909628
sI2749
F1.9874932362909628
sI2750
F1.9874932362909628
sI2751
F1.9874932362909628
sI2752
F1.9874932362909628
sI2753
F1.9874932362909628
sI2754
F1.9874932362909628
sI2755
F1.9874932362909628
sI2756
F1.9874932362909628
sI2757
F1.9874932362909628
sI2758
F1.9874932362909628
sI2759
F1.9874932362909628
sI2760
F1.9874932362909628
sI2761
F1.9874932362909628
sI2762
F1.9874932362909628
sI2763
F1.9874932362909628
sI2764
F1.9874932362909628
sI2765
F1.9874932362909628
sI2766
F1.9874932362909628
sI2767
F1.9874932362909628
sI2768
F1.9874932362909628
sI2769
F1.9874932362909628
sI2770
F1.9874932362909628
sI2771
F1.9874932362909628
sI2772
F1.9874932362909628
sI2773
F1.9874932362909628
sI2774
F1.9874932362909628
sI2775
F1.9874932362909628
sI2776
F1.9874932362909628
sI2777
F1.9874932362909628
sI2778
F1.9874932362909628
sI2779
F1.9874932362909628
sI2780
F1.9874932362909628
sI2781
F1.9874932362909628
sI2782
F1.9874932362909628
sI2783
F1.9874932362909628
sI2784
F1.9874932362909628
sI2785
F1.9874932362909628
sI2786
F1.9874932362909628
sI2787
F1.9874932362909628
sI2788
F1.9874932362909628
sI2789
F1.9874932362909628
sI2790
F1.9874932362909628
sI2791
F1.9874932362909628
sI2792
F1.9874932362909628
sI2793
F1.9874932362909628
sI2794
F1.9874932362909628
sI2795
F1.9874932362909628
sI2796
F1.9874932362909628
sI2797
F1.9874932362909628
sI2798
F1.9874932362909628
sI2799
F1.9874932362909628
sI2800
F1.9874932362909628
sI2801
F1.9874932362909628
sI2802
F1.9874932362909628
sI2803
F1.9874932362909628
sI2804
F1.9874932362909628
sI2805
F1.9874932362909628
sI2806
F1.9874932362909628
sI2807
F1.9874932362909628
sI2808
F1.9874932362909628
sI2809
F1.9874932362909628
sI2810
F1.9874932362909628
sI2811
F1.9874932362909628
sI2812
F1.9874932362909628
sI2813
F1.9874932362909628
sI2814
F1.9874932362909628
sI2815
F1.9874932362909628
sI2816
F1.9874932362909628
sI2817
F1.9874932362909628
sI2818
F1.9874932362909628
sI2819
F1.9874932362909628
sI2820
F1.9874932362909628
sI2821
F1.9874932362909628
sI2822
F1.9874932362909628
sI2823
F1.9874932362909628
sI2824
F1.9874932362909628
sI2825
F1.9874932362909628
sI2826
F1.9874932362909628
sI2827
F1.9874932362909628
sI2828
F1.9874932362909628
sI2829
F1.9874932362909628
sI2830
F1.9874932362909628
sI2831
F1.9874932362909628
sI2832
F1.9874932362909628
sI2833
F1.9874932362909628
sI2834
F1.9874932362909628
sI2835
F1.9874932362909628
sI2836
F1.9874932362909628
sI2837
F1.9874932362909628
sI2838
F1.9874932362909628
sI2839
F1.9874932362909628
sI2840
F1.9874932362909628
sI2841
F1.9874932362909628
sI2842
F1.9874932362909628
sI2843
F1.9874932362909628
sI2844
F1.9874932362909628
sI2845
F1.9874932362909628
sI2846
F1.9874932362909628
sI2847
F1.9874932362909628
sI2848
F1.9874932362909628
sI2849
F1.9874932362909628
sI2850
F1.9874932362909628
sI2851
F1.9874932362909628
sI2852
F1.9874932362909628
sI2853
F1.9874932362909628
sI2854
F1.9874932362909628
sI2855
F1.9874932362909628
sI2856
F1.9874932362909628
sI2857
F1.9874932362909628
sI2858
F1.9874932362909628
sI2859
F1.9874932362909628
sI2860
F1.9874932362909628
sI2861
F1.9874932362909628
sI2862
F1.9874932362909628
sI2863
F1.9874932362909628
sI2864
F1.9874932362909628
sI2865
F1.9874932362909628
sI2866
F1.9874932362909628
sI2867
F1.9874932362909628
sI2868
F1.9874932362909628
sI2869
F1.9874932362909628
sI2870
F1.9874932362909628
sI2871
F1.9874932362909628
sI2872
F1.9874932362909628
sI2873
F1.9874932362909628
sI2874
F1.9874932362909628
sI2875
F1.9874932362909628
sI2876
F1.9874932362909628
sI2877
F1.9874932362909628
sI2878
F1.9874932362909628
sI2879
F1.9874932362909628
sI2880
F1.9874932362909628
sI2881
F1.9874932362909628
sI2882
F1.9874932362909628
sI2883
F1.9874932362909628
sI2884
F1.9874932362909628
sI2885
F1.9874932362909628
sI2886
F1.9874932362909628
sI2887
F1.9874932362909628
sI2888
F1.9874932362909628
sI2889
F1.9874932362909628
sI2890
F1.9874932362909628
sI2891
F1.9874932362909628
sI2892
F1.9874932362909628
sI2893
F1.9874932362909628
sI2894
F1.9874932362909628
sI2895
F1.9874932362909628
sI2896
F1.9874932362909628
sI2897
F1.9874932362909628
sI2898
F1.9874932362909628
sI2899
F1.9874932362909628
sI2900
F1.9874932362909628
sI2901
F1.9874932362909628
sI2902
F1.9874932362909628
sI2903
F1.9874932362909628
sI2904
F1.9874932362909628
sI2905
F1.9874932362909628
sI2906
F1.9874932362909628
sI2907
F1.9874932362909628
sI2908
F1.9874932362909628
sI2909
F1.9874932362909628
sI2910
F1.9874932362909628
sI2911
F1.9874932362909628
sI2912
F1.9874932362909628
sI2913
F1.9874932362909628
sI2914
F1.9874932362909628
sI2915
F1.9874932362909628
sI2916
F1.9874932362909628
sI2917
F1.9874932362909628
sI2918
F1.9874932362909628
sI2919
F1.9874932362909628
sI2920
F1.9874932362909628
sI2921
F1.9874932362909628
sI2922
F1.9874932362909628
sI2923
F1.9874932362909628
sI2924
F1.9874932362909628
sI2925
F1.9874932362909628
sI2926
F1.9874932362909628
sI2927
F1.9874932362909628
sI2928
F1.9874932362909628
sI2929
F1.9874932362909628
sI2930
F1.9874932362909628
sI2931
F1.9874932362909628
sI2932
F1.9874932362909628
sI2933
F1.9874932362909628
sI2934
F1.9874932362909628
sI2935
F1.9874932362909628
sI2936
F1.9874932362909628
sI2937
F1.9874932362909628
sI2938
F1.9874932362909628
sI2939
F1.9874932362909628
sI2940
F1.9874932362909628
sI2941
F1.9874932362909628
sI2942
F1.9874932362909628
sI2943
F1.9874932362909628
sI2944
F1.9874932362909628
sI2945
F1.9874932362909628
sI2946
F1.9874932362909628
sI2947
F1.9874932362909628
sI2948
F1.9874932362909628
sI2949
F1.9874932362909628
sI2950
F1.9874932362909628
sI2951
F1.9874932362909628
sI2952
F1.9874932362909628
sI2953
F1.9874932362909628
sI2954
F1.9874932362909628
sI2955
F1.9874932362909628
sI2956
F1.9874932362909628
sI2957
F1.9874932362909628
sI2958
F1.9874932362909628
sI2959
F1.9874932362909628
sI2960
F1.9874932362909628
sI2961
F1.9874932362909628
sI2962
F1.9874932362909628
sI2963
F1.9874932362909628
sI2964
F1.9874932362909628
sI2965
F1.9874932362909628
sI2966
F1.9874932362909628
sI2967
F1.9874932362909628
sI2968
F1.9874932362909628
sI2969
F1.9874932362909628
sI2970
F1.9874932362909628
sI2971
F1.9874932362909628
sI2972
F1.9874932362909628
sI2973
F1.9874932362909628
sI2974
F1.9874932362909628
sI2975
F1.9874932362909628
sI2976
F1.9874932362909628
sI2977
F1.9874932362909628
sI2978
F1.9874932362909628
sI2979
F1.9874932362909628
sI2980
F1.9874932362909628
sI2981
F1.9874932362909628
sI2982
F1.9874932362909628
sI2983
F1.9874932362909628
sI2984
F1.9874932362909628
sI2985
F1.9874932362909628
sI2986
F1.9874932362909628
sI2987
F1.9874932362909628
sI2988
F1.9874932362909628
sI2989
F1.9874932362909628
sI2990
F1.9874932362909628
sI2991
F1.9874932362909628
sI2992
F1.9874932362909628
sI2993
F1.9874932362909628
sI2994
F1.9874932362909628
sI2995
F1.9874932362909628
sI2996
F1.9874932362909628
sI2997
F1.9874932362909628
sI2998
F1.9874932362909628
sI2999
F1.9874932362909628
sI3000
F1.9874932362909628
sI3001
F1.9874932362909628
sI3002
F1.9874932362909628
sI3003
F1.9874932362909628
sI3004
F1.9874932362909628
sI3005
F1.9874932362909628
sI3006
F1.9874932362909628
sI3007
F1.9874932362909628
sI3008
F1.9874932362909628
sI3009
F1.9874932362909628
sI3010
F1.9874932362909628
sI3011
F1.9874932362909628
sI3012
F1.9874932362909628
sI3013
F1.9874932362909628
sI3014
F1.9874932362909628
sI3015
F1.9874932362909628
sI3016
F1.9874932362909628
sI3017
F1.9874932362909628
sI3018
F1.9874932362909628
sI3019
F1.9874932362909628
sI3020
F1.9874932362909628
sI3021
F1.9874932362909628
sI3022
F1.9874932362909628
sI3023
F1.9874932362909628
sI3024
F1.9874932362909628
sI3025
F1.9874932362909628
sI3026
F1.9874932362909628
sI3027
F1.9874932362909628
sI3028
F1.9874932362909628
sI3029
F1.9874932362909628
sI3030
F1.9874932362909628
sI3031
F1.9874932362909628
sI3032
F1.9874932362909628
sI3033
F1.9874932362909628
sI3034
F1.9874932362909628
sI3035
F1.9874932362909628
sI3036
F1.9874932362909628
sI3037
F1.9874932362909628
sI3038
F1.9874932362909628
sI3039
F1.9874932362909628
sI3040
F1.9874932362909628
sI3041
F1.9874932362909628
sI3042
F1.9874932362909628
sI3043
F1.9874932362909628
sI3044
F1.9874932362909628
sI3045
F1.9874932362909628
sI3046
F1.9874932362909628
sI3047
F1.9874932362909628
sI3048
F1.9874932362909628
sI3049
F1.9874932362909628
sI3050
F1.9874932362909628
sI3051
F1.9874932362909628
sI3052
F1.9874932362909628
sI3053
F1.9874932362909628
sI3054
F1.9874932362909628
sI3055
F1.9874932362909628
sI3056
F1.9874932362909628
sI3057
F1.9874932362909628
sI3058
F1.9874932362909628
sI3059
F1.9874932362909628
sI3060
F1.9874932362909628
sI3061
F1.9874932362909628
sI3062
F1.9874932362909628
sI3063
F1.9874932362909628
sI3064
F1.9874932362909628
sI3065
F1.9874932362909628
sI3066
F1.9874932362909628
sI3067
F1.9874932362909628
sI3068
F1.9874932362909628
sI3069
F1.9874932362909628
sI3070
F1.9874932362909628
sI3071
F1.9874932362909628
sI3072
F1.9874932362909628
sI3073
F1.9874932362909628
sI3074
F1.9874932362909628
sI3075
F1.9874932362909628
sI3076
F1.9874932362909628
sI3077
F1.9874932362909628
sI3078
F1.9874932362909628
sI3079
F1.9874932362909628
sI3080
F1.9874932362909628
sI3081
F1.9874932362909628
sI3082
F1.9874932362909628
sI3083
F1.9874932362909628
sI3084
F1.9874932362909628
sI3085
F1.9874932362909628
sI3086
F1.9874932362909628
sI3087
F1.9874932362909628
sI3088
F1.9874932362909628
sI3089
F1.9874932362909628
sI3090
F1.9874932362909628
sI3091
F1.9874932362909628
sI3092
F1.9874932362909628
sI3093
F1.9874932362909628
sI3094
F1.9874932362909628
sI3095
F1.9874932362909628
sI3096
F1.9874932362909628
sI3097
F1.9874932362909628
sI3098
F1.9874932362909628
sI3099
F1.9874932362909628
sI3100
F1.9874932362909628
sI3101
F1.9874932362909628
sI3102
F1.9874932362909628
sI3103
F1.9874932362909628
sI3104
F1.9874932362909628
sI3105
F1.9874932362909628
sI3106
F1.9874932362909628
sI3107
F1.9874932362909628
sI3108
F1.9874932362909628
sI3109
F1.9874932362909628
sI3110
F1.9874932362909628
sI3111
F1.9874932362909628
sI3112
F1.9874932362909628
sI3113
F1.9874932362909628
sI3114
F1.9874932362909628
sI3115
F1.9874932362909628
sI3116
F1.9874932362909628
sI3117
F1.9874932362909628
sI3118
F1.9874932362909628
sI3119
F1.9874932362909628
sI3120
F1.9874932362909628
sI3121
F1.9874932362909628
sI3122
F1.9874932362909628
sI3123
F1.9874932362909628
sI3124
F1.9874932362909628
sI3125
F1.9874932362909628
sI3126
F1.9874932362909628
sI3127
F1.9874932362909628
sI3128
F1.9874932362909628
sI3129
F1.9874932362909628
sI3130
F1.9874932362909628
sI3131
F1.9874932362909628
sI3132
F1.9874932362909628
sI3133
F1.9874932362909628
sI3134
F1.9874932362909628
sI3135
F1.9874932362909628
sI3136
F1.9874932362909628
sI3137
F1.9874932362909628
sI3138
F1.9874932362909628
sI3139
F1.9874932362909628
sI3140
F1.9874932362909628
sI3141
F1.9874932362909628
sI3142
F1.9874932362909628
sI3143
F1.9874932362909628
sI3144
F1.9874932362909628
sI3145
F1.9874932362909628
sI3146
F1.9874932362909628
sI3147
F1.9874932362909628
sI3148
F1.9874932362909628
sI3149
F1.9874932362909628
sI3150
F1.9874932362909628
sI3151
F1.9874932362909628
sI3152
F1.9874932362909628
sI3153
F1.9874932362909628
sI3154
F1.9874932362909628
sI3155
F1.9874932362909628
sI3156
F1.975123646019308
sI3157
F1.975123646019308
sI3158
F1.975123646019308
sI3159
F1.975123646019308
sI3160
F1.975123646019308
sI3161
F1.975123646019308
sI3162
F1.975123646019308
sI3163
F1.975123646019308
sI3164
F1.975123646019308
sI3165
F1.975123646019308
sI3166
F1.975123646019308
sI3167
F1.975123646019308
sI3168
F1.975123646019308
sI3169
F1.975123646019308
sI3170
F1.975123646019308
sI3171
F1.975123646019308
sI3172
F1.975123646019308
sI3173
F1.975123646019308
sI3174
F1.975123646019308
sI3175
F1.975123646019308
sI3176
F1.975123646019308
sI3177
F1.975123646019308
sI3178
F1.975123646019308
sI3179
F1.975123646019308
sI3180
F1.975123646019308
sI3181
F1.975123646019308
sI3182
F1.975123646019308
sI3183
F1.975123646019308
sI3184
F1.975123646019308
sI3185
F1.975123646019308
sI3186
F1.975123646019308
sI3187
F1.975123646019308
sI3188
F1.975123646019308
sI3189
F1.975123646019308
sI3190
F1.975123646019308
sI3191
F1.975123646019308
sI3192
F1.975123646019308
sI3193
F1.975123646019308
sI3194
F1.975123646019308
sI3195
F1.9295404591412033
sI3196
F1.9295404591412033
sI3197
F1.9295404591412033
sI3198
F1.9295404591412033
sI3199
F1.9295404591412033
sI3200
F1.9295404591412033
sI3201
F1.9295404591412033
sI3202
F1.9295404591412033
sI3203
F1.9295404591412033
sI3204
F1.9295404591412033
sI3205
F1.9295404591412033
sI3206
F1.9295404591412033
sI3207
F1.9295404591412033
sI3208
F1.9295404591412033
sI3209
F1.9295404591412033
sI3210
F1.9295404591412033
sI3211
F1.9295404591412033
sI3212
F1.9295404591412033
sI3213
F1.9295404591412033
sI3214
F1.9295404591412033
sI3215
F1.9295404591412033
sI3216
F1.9295404591412033
sI3217
F1.9295404591412033
sI3218
F1.9295404591412033
sI3219
F1.9295404591412033
sI3220
F1.9295404591412033
sI3221
F1.9295404591412033
sI3222
F1.9295404591412033
sI3223
F1.9295404591412033
sI3224
F1.9295404591412033
sI3225
F1.9295404591412033
sI3226
F1.9295404591412033
sI3227
F1.9295404591412033
sI3228
F1.9295404591412033
sI3229
F1.9295404591412033
sI3230
F1.9295404591412033
sI3231
F1.9295404591412033
sI3232
F1.9043829971702158
sI3233
F1.9043829971702158
sI3234
F1.9043829971702158
sI3235
F1.9043829971702158
sI3236
F1.9043829971702158
sI3237
F1.9043829971702158
sI3238
F1.9043829971702158
sI3239
F1.9043829971702158
sI3240
F1.9043829971702158
sI3241
F1.9043829971702158
sI3242
F1.9043829971702158
sI3243
F1.9043829971702158
sI3244
F1.9043829971702158
sI3245
F1.9043829971702158
sI3246
F1.9043829971702158
sI3247
F1.9043829971702158
sI3248
F1.9043829971702158
sI3249
F1.9043829971702158
sI3250
F1.9043829971702158
sI3251
F1.9043829971702158
sI3252
F1.9043829971702158
sI3253
F1.9043829971702158
sI3254
F1.9043829971702158
sI3255
F1.9043829971702158
sI3256
F1.9043829971702158
sI3257
F1.9043829971702158
sI3258
F1.9043829971702158
sI3259
F1.9043829971702158
sI3260
F1.9043829971702158
sI3261
F1.9043829971702158
sI3262
F1.9043829971702158
sI3263
F1.9043829971702158
sI3264
F1.9043829971702158
sI3265
F1.9043829971702158
sI3266
F1.9043829971702158
sI3267
F1.9043829971702158
sI3268
F1.9043829971702158
sI3269
F1.9043829971702158
sI3270
F1.9043829971702158
sI3271
F1.9043829971702158
sI3272
F1.9043829971702158
sI3273
F1.9043829971702158
sI3274
F1.9043829971702158
sI3275
F1.9043829971702158
sI3276
F1.9043829971702158
sI3277
F1.9043829971702158
sI3278
F1.9043829971702158
sI3279
F1.9043829971702158
sI3280
F1.9043829971702158
sI3281
F1.9043829971702158
sI3282
F1.9043829971702158
sI3283
F1.9043829971702158
sI3284
F1.9043829971702158
sI3285
F1.9043829971702158
sI3286
F1.9043829971702158
sI3287
F1.9043829971702158
sI3288
F1.9043829971702158
sI3289
F1.9043829971702158
sI3290
F1.9043829971702158
sI3291
F1.9043829971702158
sI3292
F1.9043829971702158
sI3293
F1.9043829971702158
sI3294
F1.9043829971702158
sI3295
F1.9043829971702158
sI3296
F1.9043829971702158
sI3297
F1.9043829971702158
sI3298
F1.9043829971702158
sI3299
F1.9043829971702158
sI3300
F1.9043829971702158
sI3301
F1.9043829971702158
sI3302
F1.9043829971702158
sI3303
F1.9043829971702158
sI3304
F1.9043829971702158
sI3305
F1.9043829971702158
sI3306
F1.9043829971702158
sI3307
F1.9043829971702158
sI3308
F1.9043829971702158
sI3309
F1.9043829971702158
sI3310
F1.9043829971702158
sI3311
F1.9043829971702158
sI3312
F1.9043829971702158
sI3313
F1.9043829971702158
sI3314
F1.9043829971702158
sI3315
F1.9043829971702158
sI3316
F1.9043829971702158
sI3317
F1.9043829971702158
sI3318
F1.9043829971702158
sI3319
F1.9043829971702158
sI3320
F1.9043829971702158
sI3321
F1.9043829971702158
sI3322
F1.9043829971702158
sI3323
F1.9043829971702158
sI3324
F1.9043829971702158
sI3325
F1.9043829971702158
sI3326
F1.9043829971702158
sI3327
F1.9043829971702158
sI3328
F1.9043829971702158
sI3329
F1.9043829971702158
sI3330
F1.9043829971702158
sI3331
F1.9043829971702158
sI3332
F1.9043829971702158
sI3333
F1.9043829971702158
sI3334
F1.9043829971702158
sI3335
F1.9043829971702158
sI3336
F1.9043829971702158
sI3337
F1.9043829971702158
sI3338
F1.9043829971702158
sI3339
F1.9043829971702158
sI3340
F1.9043829971702158
sI3341
F1.9043829971702158
sI3342
F1.9043829971702158
sI3343
F1.9043829971702158
sI3344
F1.9043829971702158
sI3345
F1.9043829971702158
sI3346
F1.9043829971702158
sI3347
F1.9043829971702158
sI3348
F1.9043829971702158
sI3349
F1.9043829971702158
sI3350
F1.9043829971702158
sI3351
F1.9043829971702158
sI3352
F1.9043829971702158
sI3353
F1.9043829971702158
sI3354
F1.9043829971702158
sI3355
F1.9043829971702158
sI3356
F1.9043829971702158
sI3357
F1.9043829971702158
sI3358
F1.9043829971702158
sI3359
F1.9043829971702158
sI3360
F1.9043829971702158
sI3361
F1.9043829971702158
sI3362
F1.9043829971702158
sI3363
F1.9043829971702158
sI3364
F1.9043829971702158
sI3365
F1.9043829971702158
sI3366
F1.9043829971702158
sI3367
F1.9043829971702158
sI3368
F1.9043829971702158
sI3369
F1.9043829971702158
sI3370
F1.9043829971702158
sI3371
F1.9043829971702158
sI3372
F1.9043829971702158
sI3373
F1.9043829971702158
sI3374
F1.9043829971702158
sI3375
F1.9043829971702158
sI3376
F1.9043829971702158
sI3377
F1.9043829971702158
sI3378
F1.9043829971702158
sI3379
F1.9043829971702158
sI3380
F1.9043829971702158
sI3381
F1.9043829971702158
sI3382
F1.9043829971702158
sI3383
F1.9043829971702158
sI3384
F1.9043829971702158
sI3385
F1.9043829971702158
sI3386
F1.9043829971702158
sI3387
F1.9043829971702158
sI3388
F1.9043829971702158
sI3389
F1.9043829971702158
sI3390
F1.9043829971702158
sI3391
F1.9043829971702158
sI3392
F1.9043829971702158
sI3393
F1.9043829971702158
sI3394
F1.9043829971702158
sI3395
F1.9043829971702158
sI3396
F1.9043829971702158
sI3397
F1.9043829971702158
sI3398
F1.9043829971702158
sI3399
F1.9043829971702158
sI3400
F1.9043829971702158
sI3401
F1.9043829971702158
sI3402
F1.9043829971702158
sI3403
F1.9043829971702158
sI3404
F1.9043829971702158
sI3405
F1.9043829971702158
sI3406
F1.9043829971702158
sI3407
F1.9043829971702158
sI3408
F1.9043829971702158
sI3409
F1.9043829971702158
sI3410
F1.9043829971702158
sI3411
F1.9043829971702158
sI3412
F1.9043829971702158
sI3413
F1.9043829971702158
sI3414
F1.9043829971702158
sI3415
F1.9043829971702158
sI3416
F1.9043829971702158
sI3417
F1.9043829971702158
sI3418
F1.9043829971702158
sI3419
F1.9043829971702158
sI3420
F1.9043829971702158
sI3421
F1.9043829971702158
sI3422
F1.9043829971702158
sI3423
F1.9043829971702158
sI3424
F1.9043829971702158
sI3425
F1.9043829971702158
sI3426
F1.9043829971702158
sI3427
F1.9043829971702158
sI3428
F1.9043829971702158
sI3429
F1.9043829971702158
sI3430
F1.9043829971702158
sI3431
F1.9043829971702158
sI3432
F1.9043829971702158
sI3433
F1.9043829971702158
sI3434
F1.9043829971702158
sI3435
F1.9043829971702158
sI3436
F1.9043829971702158
sI3437
F1.9043829971702158
sI3438
F1.9043829971702158
sI3439
F1.9043829971702158
sI3440
F1.9043829971702158
sI3441
F1.9043829971702158
sI3442
F1.9043829971702158
sI3443
F1.9043829971702158
sI3444
F1.9043829971702158
sI3445
F1.9043829971702158
sI3446
F1.9043829971702158
sI3447
F1.9043829971702158
sI3448
F1.9043829971702158
sI3449
F1.9043829971702158
sI3450
F1.9043829971702158
sI3451
F1.9043829971702158
sI3452
F1.9043829971702158
sI3453
F1.9043829971702158
sI3454
F1.9043829971702158
sI3455
F1.9043829971702158
sI3456
F1.9043829971702158
sI3457
F1.9043829971702158
sI3458
F1.9043829971702158
sI3459
F1.9043829971702158
sI3460
F1.9043829971702158
sI3461
F1.9043829971702158
sI3462
F1.9043829971702158
sI3463
F1.9043829971702158
sI3464
F1.9043829971702158
sI3465
F1.9043829971702158
sI3466
F1.9043829971702158
sI3467
F1.9043829971702158
sI3468
F1.9043829971702158
sI3469
F1.9043829971702158
sI3470
F1.9043829971702158
sI3471
F1.9043829971702158
sI3472
F1.9043829971702158
sI3473
F1.9043829971702158
sI3474
F1.9043829971702158
sI3475
F1.9043829971702158
sI3476
F1.9043829971702158
sI3477
F1.9043829971702158
sI3478
F1.9043829971702158
sI3479
F1.9043829971702158
sI3480
F1.9043829971702158
sI3481
F1.9043829971702158
sI3482
F1.9043829971702158
sI3483
F1.9043829971702158
sI3484
F1.9043829971702158
sI3485
F1.9043829971702158
sI3486
F1.9043829971702158
sI3487
F1.9043829971702158
sI3488
F1.9043829971702158
sI3489
F1.9043829971702158
sI3490
F1.9043829971702158
sI3491
F1.9043829971702158
sI3492
F1.9043829971702158
sI3493
F1.9043829971702158
sI3494
F1.9043829971702158
sI3495
F1.9043829971702158
sI3496
F1.9043829971702158
sI3497
F1.9043829971702158
sI3498
F1.9043829971702158
sI3499
F1.9043829971702158
sI3500
F1.9043829971702158
sI3501
F1.9043829971702158
sI3502
F1.9043829971702158
sI3503
F1.9043829971702158
sI3504
F1.9043829971702158
sI3505
F1.9043829971702158
sI3506
F1.9043829971702158
sI3507
F1.9043829971702158
sI3508
F1.9043829971702158
sI3509
F1.9043829971702158
sI3510
F1.9043829971702158
sI3511
F1.9043829971702158
sI3512
F1.9043829971702158
sI3513
F1.9043829971702158
sI3514
F1.9043829971702158
sI3515
F1.9043829971702158
sI3516
F1.9043829971702158
sI3517
F1.9043829971702158
sI3518
F1.9043829971702158
sI3519
F1.9043829971702158
sI3520
F1.9043829971702158
sI3521
F1.9043829971702158
sI3522
F1.9043829971702158
sI3523
F1.9043829971702158
sI3524
F1.9043829971702158
sI3525
F1.9043829971702158
sI3526
F1.9043829971702158
sI3527
F1.9043829971702158
sI3528
F1.9043829971702158
sI3529
F1.9043829971702158
sI3530
F1.9043829971702158
sI3531
F1.9043829971702158
sI3532
F1.9043829971702158
sI3533
F1.9043829971702158
sI3534
F1.9043829971702158
sI3535
F1.9043829971702158
sI3536
F1.9043829971702158
sI3537
F1.9043829971702158
sI3538
F1.9043829971702158
sI3539
F1.9043829971702158
sI3540
F1.9043829971702158
sI3541
F1.9043829971702158
sI3542
F1.9043829971702158
sI3543
F1.9043829971702158
sI3544
F1.9043829971702158
sI3545
F1.9043829971702158
sI3546
F1.9043829971702158
sI3547
F1.9043829971702158
sI3548
F1.9043829971702158
sI3549
F1.9043829971702158
sI3550
F1.9043829971702158
sI3551
F1.9043829971702158
sI3552
F1.9043829971702158
sI3553
F1.9043829971702158
sI3554
F1.9043829971702158
sI3555
F1.9043829971702158
sI3556
F1.9043829971702158
sI3557
F1.9043829971702158
sI3558
F1.9043829971702158
sI3559
F1.9043829971702158
sI3560
F1.9043829971702158
sI3561
F1.9043829971702158
sI3562
F1.9043829971702158
sI3563
F1.9043829971702158
sI3564
F1.9043829971702158
sI3565
F1.9043829971702158
sI3566
F1.9043829971702158
sI3567
F1.9043829971702158
sI3568
F1.9043829971702158
sI3569
F1.9043829971702158
sI3570
F1.9043829971702158
sI3571
F1.9043829971702158
sI3572
F1.9043829971702158
sI3573
F1.9043829971702158
sI3574
F1.9043829971702158
sI3575
F1.9043829971702158
sI3576
F1.9043829971702158
sI3577
F1.9043829971702158
sI3578
F1.9043829971702158
sI3579
F1.9043829971702158
sI3580
F1.9043829971702158
sI3581
F1.9043829971702158
sI3582
F1.9043829971702158
sI3583
F1.9043829971702158
sI3584
F1.9043829971702158
sI3585
F1.9043829971702158
sI3586
F1.9043829971702158
sI3587
F1.9043829971702158
sI3588
F1.9043829971702158
sI3589
F1.9043829971702158
sI3590
F1.9043829971702158
sI3591
F1.9043829971702158
sI3592
F1.9043829971702158
sI3593
F1.9043829971702158
sI3594
F1.9043829971702158
sI3595
F1.9043829971702158
sI3596
F1.9043829971702158
sI3597
F1.9043829971702158
sI3598
F1.9043829971702158
sI3599
F1.9043829971702158
sI3600
F1.9043829971702158
sI3601
F1.9043829971702158
sI3602
F1.9043829971702158
sI3603
F1.9043829971702158
sI3604
F1.9043829971702158
sI3605
F1.9043829971702158
sI3606
F1.9043829971702158
sI3607
F1.9768600122816131
sI3608
F1.9768600122816131
sI3609
F1.9768600122816131
sI3610
F1.9768600122816131
sI3611
F1.9768600122816131
sI3612
F1.9768600122816131
sI3613
F1.9768600122816131
sI3614
F1.9768600122816131
sI3615
F1.9768600122816131
sI3616
F1.9768600122816131
sI3617
F1.9768600122816131
sI3618
F1.9768600122816131
sI3619
F1.9768600122816131
sI3620
F1.9768600122816131
sI3621
F1.9768600122816131
sI3622
F1.9768600122816131
sI3623
F1.9768600122816131
sI3624
F1.9768600122816131
sI3625
F1.9768600122816131
sI3626
F1.9768600122816131
sI3627
F1.9768600122816131
sI3628
F1.9768600122816131
sI3629
F1.9768600122816131
sI3630
F1.9768600122816131
sI3631
F1.9768600122816131
sI3632
F1.9768600122816131
sI3633
F1.9768600122816131
sI3634
F1.9768600122816131
sI3635
F1.9768600122816131
sI3636
F1.9768600122816131
sI3637
F1.9768600122816131
sI3638
F1.9768600122816131
sI3639
F1.9768600122816131
sI3640
F1.9768600122816131
sI3641
F1.9768600122816131
sI3642
F1.9768600122816131
sI3643
F1.9768600122816131
sI3644
F1.9768600122816131
sI3645
F1.9768600122816131
sI3646
F1.9768600122816131
sI3647
F1.9768600122816131
sI3648
F1.9768600122816131
sI3649
F1.9768600122816131
sI3650
F1.9768600122816131
sI3651
F1.9768600122816131
sI3652
F1.9768600122816131
sI3653
F1.9768600122816131
sI3654
F1.9768600122816131
sI3655
F1.9768600122816131
sI3656
F1.9768600122816131
sI3657
F1.9768600122816131
sI3658
F1.9768600122816131
sI3659
F1.9768600122816131
sI3660
F1.9768600122816131
sI3661
F1.9768600122816131
sI3662
F1.9768600122816131
sI3663
F1.9768600122816131
sI3664
F1.9768600122816131
sI3665
F1.9768600122816131
sI3666
F1.9768600122816131
sI3667
F1.9768600122816131
sI3668
F1.9768600122816131
sI3669
F1.9768600122816131
sI3670
F1.9768600122816131
sI3671
F1.9768600122816131
sI3672
F1.9768600122816131
sI3673
F1.9768600122816131
sI3674
F1.9768600122816131
sI3675
F1.9768600122816131
sI3676
F1.9768600122816131
sI3677
F1.9768600122816131
sI3678
F1.9768600122816131
sI3679
F1.9768600122816131
sI3680
F1.9768600122816131
sI3681
F1.9768600122816131
sI3682
F1.9768600122816131
sI3683
F1.9768600122816131
sI3684
F1.9768600122816131
sI3685
F1.9768600122816131
sI3686
F1.9768600122816131
sI3687
F1.9768600122816131
sI3688
F1.9768600122816131
sI3689
F1.9768600122816131
sI3690
F1.9768600122816131
sI3691
F1.9768600122816131
sI3692
F1.9768600122816131
sI3693
F1.9768600122816131
sI3694
F1.9768600122816131
sI3695
F1.9768600122816131
sI3696
F1.9768600122816131
sI3697
F1.9768600122816131
sI3698
F1.9768600122816131
sI3699
F1.9768600122816131
sI3700
F1.9768600122816131
sI3701
F1.9768600122816131
sI3702
F1.9768600122816131
sI3703
F1.9768600122816131
sI3704
F1.9768600122816131
sI3705
F1.9768600122816131
sI3706
F1.9768600122816131
sI3707
F1.9768600122816131
sI3708
F1.9768600122816131
sI3709
F1.9768600122816131
sI3710
F1.9768600122816131
sI3711
F1.9768600122816131
sI3712
F1.9768600122816131
sI3713
F1.9768600122816131
sI3714
F1.9768600122816131
sI3715
F1.9768600122816131
sI3716
F1.9768600122816131
sI3717
F1.9768600122816131
sI3718
F1.9768600122816131
sI3719
F1.9768600122816131
sI3720
F1.9768600122816131
sI3721
F1.9768600122816131
sI3722
F1.9768600122816131
sI3723
F1.9768600122816131
sI3724
F1.9768600122816131
sI3725
F1.9768600122816131
sI3726
F1.9768600122816131
sI3727
F1.9768600122816131
sI3728
F1.9768600122816131
sI3729
F1.9768600122816131
sI3730
F1.9768600122816131
sI3731
F1.9768600122816131
sI3732
F1.9768600122816131
sI3733
F1.9768600122816131
sI3734
F1.9768600122816131
sI3735
F1.9768600122816131
sI3736
F1.9768600122816131
sI3737
F1.9768600122816131
sI3738
F1.9768600122816131
sI3739
F1.9768600122816131
sI3740
F1.9768600122816131
sI3741
F1.9768600122816131
sI3742
F1.9768600122816131
sI3743
F1.9768600122816131
sI3744
F1.9768600122816131
sI3745
F1.9768600122816131
sI3746
F1.9768600122816131
sI3747
F1.9768600122816131
sI3748
F1.9768600122816131
sI3749
F1.9768600122816131
sI3750
F1.9768600122816131
sI3751
F1.9768600122816131
sI3752
F1.9768600122816131
sI3753
F1.9768600122816131
sI3754
F1.9768600122816131
sI3755
F1.9768600122816131
sI3756
F1.9768600122816131
sI3757
F1.9768600122816131
sI3758
F1.9768600122816131
sI3759
F1.9768600122816131
sI3760
F1.9768600122816131
sI3761
F1.9768600122816131
sI3762
F1.9768600122816131
sI3763
F1.9768600122816131
sI3764
F1.9768600122816131
sI3765
F1.9768600122816131
sI3766
F1.9768600122816131
sI3767
F1.9768600122816131
sI3768
F1.9768600122816131
sI3769
F1.9768600122816131
sI3770
F1.9768600122816131
sI3771
F1.9768600122816131
sI3772
F1.9768600122816131
sI3773
F1.9768600122816131
sI3774
F1.9768600122816131
sI3775
F1.9768600122816131
sI3776
F1.9768600122816131
sI3777
F1.9768600122816131
sI3778
F1.9768600122816131
sI3779
F1.9768600122816131
sI3780
F1.9768600122816131
sI3781
F1.9768600122816131
sI3782
F1.9768600122816131
sI3783
F1.9768600122816131
sI3784
F1.9768600122816131
sI3785
F1.9768600122816131
sI3786
F1.9768600122816131
sI3787
F1.9768600122816131
sI3788
F1.9768600122816131
sI3789
F1.9768600122816131
sI3790
F1.9768600122816131
sI3791
F1.9768600122816131
sI3792
F1.9768600122816131
sI3793
F1.9768600122816131
sI3794
F1.9768600122816131
sI3795
F1.9768600122816131
sI3796
F1.9768600122816131
sI3797
F1.9768600122816131
sI3798
F1.9768600122816131
sI3799
F1.9768600122816131
sI3800
F1.9768600122816131
sI3801
F1.9768600122816131
sI3802
F1.9768600122816131
sI3803
F1.9768600122816131
sI3804
F1.9768600122816131
sI3805
F1.9768600122816131
sI3806
F1.9768600122816131
sI3807
F1.9768600122816131
sI3808
F1.9768600122816131
sI3809
F1.9768600122816131
sI3810
F1.9768600122816131
sI3811
F1.9768600122816131
sI3812
F1.9768600122816131
sI3813
F1.9768600122816131
sI3814
F1.9768600122816131
sI3815
F1.9768600122816131
sI3816
F1.9768600122816131
sI3817
F1.9768600122816131
sI3818
F1.9768600122816131
sI3819
F1.9768600122816131
sI3820
F1.9768600122816131
sI3821
F1.9768600122816131
sI3822
F1.9768600122816131
sI3823
F1.9768600122816131
sI3824
F1.9768600122816131
sI3825
F1.9768600122816131
sI3826
F1.9768600122816131
sI3827
F1.9768600122816131
sI3828
F1.9768600122816131
sI3829
F1.9768600122816131
sI3830
F1.9768600122816131
sI3831
F1.9768600122816131
sI3832
F1.9768600122816131
sI3833
F1.9768600122816131
sI3834
F1.9768600122816131
sI3835
F1.9768600122816131
sI3836
F1.9768600122816131
sI3837
F1.9768600122816131
sI3838
F1.9768600122816131
sI3839
F1.9768600122816131
sI3840
F1.9768600122816131
sI3841
F1.9768600122816131
sI3842
F1.9768600122816131
sI3843
F1.9768600122816131
sI3844
F1.9768600122816131
sI3845
F1.9768600122816131
sI3846
F1.9768600122816131
sI3847
F1.9768600122816131
sI3848
F1.9768600122816131
sI3849
F1.9768600122816131
sI3850
F1.9768600122816131
sI3851
F1.9768600122816131
sI3852
F1.9768600122816131
sI3853
F1.9768600122816131
sI3854
F1.9768600122816131
sI3855
F1.9768600122816131
sI3856
F1.9768600122816131
sI3857
F1.9768600122816131
sI3858
F1.9768600122816131
sI3859
F1.9768600122816131
sI3860
F1.9768600122816131
sI3861
F1.9768600122816131
sI3862
F1.9768600122816131
sI3863
F1.9768600122816131
sI3864
F1.9768600122816131
sI3865
F1.9768600122816131
sI3866
F1.9768600122816131
sI3867
F1.9768600122816131
sI3868
F1.9768600122816131
sI3869
F1.9768600122816131
sI3870
F1.9768600122816131
sI3871
F1.9768600122816131
sI3872
F1.9768600122816131
sI3873
F1.9768600122816131
sI3874
F1.9768600122816131
sI3875
F1.9768600122816131
sI3876
F1.9768600122816131
sI3877
F1.9768600122816131
sI3878
F1.9768600122816131
sI3879
F1.9768600122816131
sI3880
F1.9768600122816131
sI3881
F1.9768600122816131
sI3882
F1.9768600122816131
sI3883
F1.9768600122816131
sI3884
F1.9768600122816131
sI3885
F1.9768600122816131
sI3886
F1.9768600122816131
sI3887
F1.9768600122816131
sI3888
F1.9768600122816131
sI3889
F1.9768600122816131
sI3890
F1.9768600122816131
sI3891
F1.9768600122816131
sI3892
F1.9768600122816131
sI3893
F1.9768600122816131
sI3894
F1.9768600122816131
sI3895
F1.9768600122816131
sI3896
F1.9768600122816131
sI3897
F1.9768600122816131
sI3898
F1.9768600122816131
sI3899
F1.9768600122816131
sI3900
F1.9768600122816131
sI3901
F1.9768600122816131
sI3902
F1.9768600122816131
sI3903
F1.9768600122816131
sI3904
F1.9768600122816131
sI3905
F1.9768600122816131
sI3906
F1.9768600122816131
sI3907
F1.9768600122816131
sI3908
F1.9768600122816131
sI3909
F1.9768600122816131
sI3910
F1.9768600122816131
sI3911
F1.9768600122816131
sI3912
F1.9768600122816131
sI3913
F1.9768600122816131
sI3914
F1.9768600122816131
sI3915
F1.9768600122816131
sI3916
F1.9768600122816131
sI3917
F1.9768600122816131
sI3918
F1.9768600122816131
sI3919
F1.9768600122816131
sI3920
F1.9768600122816131
sI3921
F1.9768600122816131
sI3922
F1.9768600122816131
sI3923
F1.9768600122816131
sI3924
F1.9768600122816131
sI3925
F1.9768600122816131
sI3926
F1.9768600122816131
sI3927
F1.9768600122816131
sI3928
F1.9768600122816131
sI3929
F1.9768600122816131
sI3930
F1.9768600122816131
sI3931
F1.9768600122816131
sI3932
F1.9768600122816131
sI3933
F1.9768600122816131
sI3934
F1.9768600122816131
sI3935
F1.9768600122816131
sI3936
F1.9768600122816131
sI3937
F1.9768600122816131
sI3938
F1.9768600122816131
sI3939
F1.9768600122816131
sI3940
F1.9768600122816131
sI3941
F1.9768600122816131
sI3942
F1.9768600122816131
sI3943
F1.9768600122816131
sI3944
F1.9768600122816131
sI3945
F1.9768600122816131
sI3946
F1.9768600122816131
sI3947
F1.9768600122816131
sI3948
F1.9768600122816131
sI3949
F1.9768600122816131
sI3950
F1.9768600122816131
sI3951
F1.9768600122816131
sI3952
F1.9768600122816131
sI3953
F1.9768600122816131
sI3954
F1.9768600122816131
sI3955
F1.9768600122816131
sI3956
F1.9768600122816131
sI3957
F1.9768600122816131
sI3958
F1.9768600122816131
sI3959
F1.9768600122816131
sI3960
F1.9768600122816131
sI3961
F1.9768600122816131
sI3962
F1.9768600122816131
sI3963
F1.9768600122816131
sI3964
F1.9768600122816131
sI3965
F1.9768600122816131
sI3966
F1.9768600122816131
sI3967
F1.9768600122816131
sI3968
F1.9768600122816131
sI3969
F1.9768600122816131
sI3970
F1.9768600122816131
sI3971
F1.9768600122816131
sI3972
F1.9768600122816131
sI3973
F1.9768600122816131
sI3974
F1.9768600122816131
sI3975
F1.9768600122816131
sI3976
F1.9768600122816131
sI3977
F1.9768600122816131
sI3978
F1.9768600122816131
sI3979
F1.9768600122816131
sI3980
F1.9768600122816131
sI3981
F1.9768600122816131
sI3982
F1.9768600122816131
sI3983
F1.9768600122816131
sI3984
F1.9768600122816131
sI3985
F1.9768600122816131
sI3986
F1.9768600122816131
sI3987
F1.9768600122816131
sI3988
F1.9768600122816131
sI3989
F1.9768600122816131
sI3990
F1.9768600122816131
sI3991
F1.9768600122816131
sI3992
F1.9768600122816131
sI3993
F1.9768600122816131
sI3994
F1.9768600122816131
sI3995
F1.9768600122816131
sI3996
F1.9768600122816131
sI3997
F1.9768600122816131
sI3998
F1.9768600122816131
sI3999
F1.9768600122816131
sI4000
F1.9768600122816131
sI4001
F1.9768600122816131
sI4002
F1.9768600122816131
sI4003
F1.9768600122816131
sI4004
F1.9768600122816131
sI4005
F1.9768600122816131
sI4006
F1.9768600122816131
sI4007
F1.9768600122816131
sI4008
F1.9768600122816131
sI4009
F1.9768600122816131
sI4010
F1.9768600122816131
sI4011
F1.9768600122816131
sI4012
F1.9768600122816131
sI4013
F1.9768600122816131
sI4014
F1.9768600122816131
sI4015
F1.9768600122816131
sI4016
F1.9768600122816131
sI4017
F1.9768600122816131
sI4018
F1.9768600122816131
sI4019
F1.9768600122816131
sI4020
F1.9768600122816131
sI4021
F1.9768600122816131
sI4022
F1.9768600122816131
sI4023
F1.9768600122816131
sI4024
F1.9768600122816131
sI4025
F1.9768600122816131
sI4026
F1.9768600122816131
sI4027
F1.9768600122816131
sI4028
F1.9768600122816131
sI4029
F1.9768600122816131
sI4030
F1.9768600122816131
sI4031
F1.9768600122816131
sI4032
F1.9768600122816131
sI4033
F1.9768600122816131
sI4034
F1.9099298288976931
sI4035
F1.9099298288976931
sI4036
F1.9099298288976931
sI4037
F1.9099298288976931
sI4038
F1.9172795556468674
sI4039
F1.9172795556468674
sI4040
F1.9172795556468674
sI4041
F1.9172795556468674
sI4042
F1.9172795556468674
sI4043
F1.9172795556468674
sI4044
F1.9172795556468674
sI4045
F1.9172795556468674
sI4046
F1.9172795556468674
sI4047
F1.9172795556468674
sI4048
F1.9172795556468674
sI4049
F1.9172795556468674
sI4050
F1.9172795556468674
sI4051
F1.9172795556468674
sI4052
F1.9172795556468674
sI4053
F1.9172795556468674
sI4054
F1.9172795556468674
sI4055
F1.9172795556468674
sI4056
F1.9172795556468674
sI4057
F1.9172795556468674
sI4058
F1.9172795556468674
sI4059
F1.9172795556468674
sI4060
F1.9172795556468674
sI4061
F1.9172795556468674
sI4062
F1.9172795556468674
sI4063
F1.9172795556468674
sI4064
F1.9172795556468674
sI4065
F1.9172795556468674
sI4066
F1.9172795556468674
sI4067
F1.9172795556468674
sI4068
F1.9172795556468674
sI4069
F1.9172795556468674
sI4070
F1.9172795556468674
sI4071
F1.9172795556468674
sI4072
F1.9172795556468674
sI4073
F1.9226752673904808
sI4074
F1.9226752673904808
sI4075
F1.9226752673904808
sI4076
F1.9226752673904808
sI4077
F1.9226752673904808
sI4078
F1.9226752673904808
sI4079
F1.9226752673904808
sI4080
F1.9226752673904808
sI4081
F1.9226752673904808
sI4082
F1.9226752673904808
sI4083
F1.9226752673904808
sI4084
F1.9226752673904808
sI4085
F1.9226752673904808
sI4086
F1.9226752673904808
sI4087
F1.9226752673904808
sI4088
F1.9226752673904808
sI4089
F1.9226752673904808
sI4090
F1.9226752673904808
sI4091
F1.9226752673904808
sI4092
F1.9226752673904808
sI4093
F1.9226752673904808
sI4094
F1.9226752673904808
sI4095
F1.9226752673904808
sI4096
F1.9226752673904808
sI4097
F1.9226752673904808
sI4098
F1.9226752673904808
sI4099
F1.9226752673904808
sI4100
F1.9226752673904808
sI4101
F1.9226752673904808
sI4102
F1.9226752673904808
sI4103
F1.9226752673904808
sI4104
F1.9226752673904808
sI4105
F1.9226752673904808
sI4106
F1.9226752673904808
sI4107
F1.9226752673904808
sI4108
F1.9226752673904808
sI4109
F1.9226752673904808
sI4110
F1.9226752673904808
sI4111
F1.9226752673904808
sI4112
F1.9226752673904808
sI4113
F1.9226752673904808
sI4114
F1.9226752673904808
sI4115
F1.9226752673904808
sI4116
F1.9226752673904808
sI4117
F1.9226752673904808
sI4118
F1.9226752673904808
sI4119
F1.9226752673904808
sI4120
F1.9226752673904808
sI4121
F1.9226752673904808
sI4122
F1.9226752673904808
sI4123
F1.9226752673904808
sI4124
F1.9226752673904808
sI4125
F1.9226752673904808
sI4126
F1.9226752673904808
sI4127
F1.9226752673904808
sI4128
F1.9226752673904808
sI4129
F1.9226752673904808
sI4130
F1.9226752673904808
sI4131
F1.9226752673904808
sI4132
F1.9226752673904808
sI4133
F1.9226752673904808
sI4134
F1.9226752673904808
sI4135
F1.9226752673904808
sI4136
F1.9226752673904808
sI4137
F1.9226752673904808
sI4138
F1.9226752673904808
sI4139
F1.9226752673904808
sI4140
F1.9226752673904808
sI4141
F1.9226752673904808
sI4142
F1.9226752673904808
sI4143
F1.9226752673904808
sI4144
F1.9226752673904808
sI4145
F1.9226752673904808
sI4146
F1.9226752673904808
sI4147
F1.9226752673904808
sI4148
F1.9226752673904808
sI4149
F1.9226752673904808
sI4150
F1.9226752673904808
sI4151
F1.9226752673904808
sI4152
F1.9226752673904808
sI4153
F1.9226752673904808
sI4154
F1.9226752673904808
sI4155
F1.9226752673904808
sI4156
F1.9226752673904808
sI4157
F1.9226752673904808
sI4158
F1.9226752673904808
sI4159
F1.9226752673904808
sI4160
F1.9226752673904808
sI4161
F1.9226752673904808
sI4162
F1.9226752673904808
sI4163
F1.9226752673904808
sI4164
F1.9226752673904808
sI4165
F1.9226752673904808
sI4166
F1.9226752673904808
sI4167
F1.9226752673904808
sI4168
F1.9226752673904808
sI4169
F1.9226752673904808
sI4170
F1.9226752673904808
sI4171
F1.9226752673904808
sI4172
F1.9226752673904808
sI4173
F1.9226752673904808
sI4174
F1.9226752673904808
sI4175
F1.9226752673904808
sI4176
F1.9226752673904808
sI4177
F1.9226752673904808
sI4178
F1.9226752673904808
sI4179
F1.9226752673904808
sI4180
F1.9226752673904808
sI4181
F1.9226752673904808
sI4182
F1.9226752673904808
sI4183
F1.9226752673904808
sI4184
F1.9226752673904808
sI4185
F1.9226752673904808
sI4186
F1.9226752673904808
sI4187
F1.9226752673904808
sI4188
F1.9226752673904808
sI4189
F1.9226752673904808
sI4190
F1.9226752673904808
sI4191
F1.9226752673904808
sI4192
F1.9226752673904808
sI4193
F1.9226752673904808
sI4194
F1.9226752673904808
sI4195
F1.9226752673904808
sI4196
F1.9226752673904808
sI4197
F1.9226752673904808
sI4198
F1.9226752673904808
sI4199
F1.9226752673904808
sI4200
F1.9226752673904808
sI4201
F1.9329693194743118
sI4202
F1.9329693194743118
sI4203
F1.9329693194743118
sI4204
F1.9329693194743118
sI4205
F1.9329693194743118
sI4206
F1.9329693194743118
sI4207
F1.9329693194743118
sI4208
F1.9329693194743118
sI4209
F1.9329693194743118
sI4210
F1.9329693194743118
sI4211
F1.9329693194743118
sI4212
F1.9329693194743118
sI4213
F1.9329693194743118
sI4214
F1.9329693194743118
sI4215
F1.9329693194743118
sI4216
F1.9329693194743118
sI4217
F1.9329693194743118
sI4218
F1.9329693194743118
sI4219
F1.9329693194743118
sI4220
F1.9329693194743118
sI4221
F1.9329693194743118
sI4222
F1.9329693194743118
sI4223
F1.9329693194743118
sI4224
F1.9329693194743118
sI4225
F1.9329693194743118
sI4226
F1.9329693194743118
sI4227
F1.9329693194743118
sI4228
F1.9329693194743118
sI4229
F1.9329693194743118
sI4230
F1.9329693194743118
sI4231
F1.9329693194743118
sI4232
F1.9329693194743118
sI4233
F1.9329693194743118
sI4234
F1.9329693194743118
sI4235
F1.9329693194743118
sI4236
F1.9329693194743118
sI4237
F1.9329693194743118
sI4238
F1.9329693194743118
sI4239
F1.9329693194743118
sI4240
F1.9329693194743118
sI4241
F1.9329693194743118
sI4242
F1.9329693194743118
sI4243
F1.9329693194743118
sI4244
F1.9329693194743118
sI4245
F1.9329693194743118
sI4246
F1.9329693194743118
sI4247
F1.9329693194743118
sI4248
F1.9329693194743118
sI4249
F1.9329693194743118
sI4250
F1.9329693194743118
sI4251
F1.9329693194743118
sI4252
F1.9329693194743118
sI4253
F1.9329693194743118
sI4254
F1.9329693194743118
sI4255
F1.9329693194743118
sI4256
F1.9329693194743118
sI4257
F1.9329693194743118
sI4258
F1.9329693194743118
sI4259
F1.9329693194743118
sI4260
F1.9329693194743118
sI4261
F1.9329693194743118
sI4262
F1.9329693194743118
sI4263
F1.9329693194743118
sI4264
F1.9329693194743118
sI4265
F1.9329693194743118
sI4266
F1.9329693194743118
sI4267
F1.9329693194743118
sI4268
F1.9329693194743118
sI4269
F1.9329693194743118
sI4270
F1.9329693194743118
sI4271
F1.9329693194743118
sI4272
F1.9329693194743118
sI4273
F1.9329693194743118
sI4274
F1.9329693194743118
sI4275
F1.9329693194743118
sI4276
F1.9329693194743118
sI4277
F1.9329693194743118
sI4278
F1.9329693194743118
sI4279
F1.9329693194743118
sI4280
F1.9329693194743118
sI4281
F1.9329693194743118
sI4282
F1.9329693194743118
sI4283
F1.9329693194743118
sI4284
F1.9329693194743118
sI4285
F1.9329693194743118
sI4286
F1.9329693194743118
sI4287
F1.9329693194743118
sI4288
F1.9329693194743118
sI4289
F1.9329693194743118
sI4290
F1.9329693194743118
sI4291
F1.9329693194743118
sI4292
F1.9329693194743118
sI4293
F1.9329693194743118
sI4294
F1.9329693194743118
sI4295
F1.9329693194743118
sI4296
F1.9329693194743118
sI4297
F1.9329693194743118
sI4298
F1.9329693194743118
sI4299
F1.9329693194743118
sI4300
F1.9329693194743118
sI4301
F1.9329693194743118
sI4302
F1.9329693194743118
sI4303
F1.9329693194743118
sI4304
F1.9329693194743118
sI4305
F1.9329693194743118
sI4306
F1.9329693194743118
sI4307
F1.9329693194743118
sI4308
F1.9329693194743118
sI4309
F1.9329693194743118
sI4310
F1.9329693194743118
sI4311
F1.9329693194743118
sI4312
F1.9329693194743118
sI4313
F1.9329693194743118
sI4314
F1.9329693194743118
sI4315
F1.9329693194743118
sI4316
F1.9329693194743118
sI4317
F1.9329693194743118
sI4318
F1.9329693194743118
sI4319
F1.9329693194743118
sI4320
F1.9329693194743118
sI4321
F1.9329693194743118
sI4322
F1.9329693194743118
sI4323
F1.9329693194743118
sI4324
F1.9329693194743118
sI4325
F1.9329693194743118
sI4326
F1.9329693194743118
sI4327
F1.9329693194743118
sI4328
F1.9329693194743118
sI4329
F1.9329693194743118
sI4330
F1.9329693194743118
sI4331
F1.9329693194743118
sI4332
F1.9329693194743118
sI4333
F1.9329693194743118
sI4334
F1.9329693194743118
sI4335
F1.9329693194743118
sI4336
F1.9329693194743118
sI4337
F1.9329693194743118
sI4338
F1.9329693194743118
sI4339
F1.9329693194743118
sI4340
F1.9329693194743118
sI4341
F1.9329693194743118
sI4342
F1.9329693194743118
sI4343
F1.9329693194743118
sI4344
F1.9329693194743118
sI4345
F1.9329693194743118
sI4346
F1.9329693194743118
sI4347
F1.9329693194743118
sI4348
F1.9329693194743118
sI4349
F1.9329693194743118
sI4350
F1.9329693194743118
sI4351
F1.9329693194743118
sI4352
F1.9329693194743118
sI4353
F1.9329693194743118
sI4354
F1.9329693194743118
sI4355
F1.9329693194743118
sI4356
F1.9329693194743118
sI4357
F1.9329693194743118
sI4358
F1.9329693194743118
sI4359
F1.9329693194743118
sI4360
F1.9329693194743118
sI4361
F1.9329693194743118
sI4362
F1.9329693194743118
sI4363
F1.9329693194743118
sI4364
F1.9329693194743118
sI4365
F1.9329693194743118
sI4366
F1.9329693194743118
sI4367
F1.9329693194743118
sI4368
F1.9329693194743118
sI4369
F1.9329693194743118
sI4370
F1.9329693194743118
sI4371
F1.9329693194743118
sI4372
F1.9329693194743118
sI4373
F1.9329693194743118
sI4374
F1.9329693194743118
sI4375
F1.9329693194743118
sI4376
F1.9329693194743118
sI4377
F1.9329693194743118
sI4378
F1.9329693194743118
sI4379
F1.9329693194743118
sI4380
F1.9329693194743118
sI4381
F1.9329693194743118
sI4382
F1.9329693194743118
sI4383
F1.9329693194743118
sI4384
F1.9329693194743118
sI4385
F1.9329693194743118
sI4386
F1.9329693194743118
sI4387
F1.9329693194743118
sI4388
F1.9329693194743118
sI4389
F1.9329693194743118
sI4390
F1.9329693194743118
sI4391
F1.9329693194743118
sI4392
F1.9329693194743118
sI4393
F1.9329693194743118
sI4394
F1.9329693194743118
sI4395
F1.9329693194743118
sI4396
F1.9329693194743118
sI4397
F1.9329693194743118
sI4398
F1.9329693194743118
sI4399
F1.9329693194743118
sI4400
F1.9329693194743118
sI4401
F1.9329693194743118
sI4402
F1.9329693194743118
sI4403
F1.9329693194743118
sI4404
F1.9329693194743118
sI4405
F1.9329693194743118
sI4406
F1.9329693194743118
sI4407
F1.9329693194743118
sI4408
F1.9329693194743118
sI4409
F1.9329693194743118
sI4410
F1.9329693194743118
sI4411
F1.9329693194743118
sI4412
F1.9329693194743118
sI4413
F1.9329693194743118
sI4414
F1.9329693194743118
sI4415
F1.9329693194743118
sI4416
F1.9329693194743118
sI4417
F1.9329693194743118
sI4418
F1.9329693194743118
sI4419
F1.9329693194743118
sI4420
F1.9329693194743118
sI4421
F1.9329693194743118
sI4422
F1.9329693194743118
sI4423
F1.9329693194743118
sI4424
F1.9329693194743118
sI4425
F1.9329693194743118
sI4426
F1.9329693194743118
sI4427
F1.9329693194743118
sI4428
F2.0046805490075008
sI4429
F2.0046805490075008
sI4430
F2.0046805490075008
sI4431
F2.0046805490075008
sI4432
F2.0046805490075008
sI4433
F2.0046805490075008
sI4434
F2.0046805490075008
sI4435
F2.0046805490075008
sI4436
F2.0046805490075008
sI4437
F2.0046805490075008
sI4438
F2.0046805490075008
sI4439
F2.0046805490075008
sI4440
F2.0046805490075008
sI4441
F2.0046805490075008
sI4442
F2.0046805490075008
sI4443
F2.0046805490075008
sI4444
F2.0046805490075008
sI4445
F2.0046805490075008
sI4446
F2.0046805490075008
sI4447
F2.0046805490075008
sI4448
F2.0046805490075008
sI4449
F2.0046805490075008
sI4450
F2.0046805490075008
sI4451
F2.0046805490075008
sI4452
F2.0046805490075008
sI4453
F2.0046805490075008
sI4454
F2.0046805490075008
sI4455
F2.0046805490075008
sI4456
F2.0046805490075008
sI4457
F2.0046805490075008
sI4458
F2.0046805490075008
sI4459
F2.0046805490075008
sI4460
F2.0046805490075008
sI4461
F2.0046805490075008
sI4462
F2.0046805490075008
sI4463
F2.0046805490075008
sI4464
F2.0046805490075008
sI4465
F2.0046805490075008
sI4466
F2.0046805490075008
sI4467
F2.0046805490075008
sI4468
F2.0046805490075008
sI4469
F2.0046805490075008
sI4470
F2.0046805490075008
sI4471
F2.0046805490075008
sI4472
F2.0046805490075008
sI4473
F2.0046805490075008
sI4474
F2.0046805490075008
sI4475
F2.0046805490075008
sI4476
F2.0046805490075008
sI4477
F2.0046805490075008
sI4478
F2.0046805490075008
sI4479
F2.0046805490075008
sI4480
F2.0046805490075008
sI4481
F2.0046805490075008
sI4482
F2.0046805490075008
sI4483
F2.0046805490075008
sI4484
F2.0046805490075008
sI4485
F2.0046805490075008
sI4486
F2.0046805490075008
sI4487
F2.0046805490075008
sI4488
F2.0046805490075008
sI4489
F2.0046805490075008
sI4490
F2.0046805490075008
sI4491
F1.9691296960055913
sI4492
F1.9691296960055913
sI4493
F1.9691296960055913
sI4494
F1.9691296960055913
sI4495
F1.9691296960055913
sI4496
F1.9691296960055913
sI4497
F1.9691296960055913
sI4498
F1.9691296960055913
sI4499
F1.9691296960055913
sI4500
F1.9691296960055913
sI4501
F1.9691296960055913
sI4502
F1.9691296960055913
sI4503
F1.9691296960055913
sI4504
F1.9691296960055913
sI4505
F1.9691296960055913
sI4506
F1.9691296960055913
sI4507
F1.9691296960055913
sI4508
F1.9691296960055913
sI4509
F1.9691296960055913
sI4510
F1.9691296960055913
sI4511
F1.9691296960055913
sI4512
F1.9691296960055913
sI4513
F1.9691296960055913
sI4514
F1.9691296960055913
sI4515
F1.9691296960055913
sI4516
F1.9691296960055913
sI4517
F1.9691296960055913
sI4518
F1.9691296960055913
sI4519
F1.9691296960055913
sI4520
F1.9691296960055913
sI4521
F1.9691296960055913
sI4522
F1.9691296960055913
sI4523
F1.9691296960055913
sI4524
F1.9691296960055913
sI4525
F1.9691296960055913
sI4526
F1.9691296960055913
sI4527
F1.9691296960055913
sI4528
F1.9691296960055913
sI4529
F1.9691296960055913
sI4530
F1.9691296960055913
sI4531
F1.9691296960055913
sI4532
F1.9691296960055913
sI4533
F1.9691296960055913
sI4534
F1.9691296960055913
sI4535
F1.9691296960055913
sI4536
F1.9691296960055913
sI4537
F1.9691296960055913
sI4538
F1.9691296960055913
sI4539
F1.9691296960055913
sI4540
F1.9691296960055913
sI4541
F1.9691296960055913
sI4542
F1.9691296960055913
sI4543
F1.9691296960055913
sI4544
F1.9691296960055913
sI4545
F1.9691296960055913
sI4546
F1.9691296960055913
sI4547
F1.9691296960055913
sI4548
F1.9691296960055913
sI4549
F1.9691296960055913
sI4550
F1.9691296960055913
sI4551
F1.9691296960055913
sI4552
F1.9691296960055913
sI4553
F1.9691296960055913
sI4554
F1.9691296960055913
sI4555
F1.9691296960055913
sI4556
F1.9691296960055913
sI4557
F1.9691296960055913
sI4558
F1.9691296960055913
sI4559
F1.9691296960055913
sI4560
F1.9691296960055913
sI4561
F1.9691296960055913
sI4562
F1.9691296960055913
sI4563
F1.9691296960055913
sI4564
F1.9691296960055913
sI4565
F1.9691296960055913
sI4566
F1.9691296960055913
sI4567
F1.9691296960055913
sI4568
F1.9691296960055913
sI4569
F1.9691296960055913
sI4570
F1.9691296960055913
sI4571
F1.9691296960055913
sI4572
F1.9691296960055913
sI4573
F1.9691296960055913
sI4574
F1.9691296960055913
sI4575
F1.9691296960055913
sI4576
F1.9691296960055913
sI4577
F1.9691296960055913
sI4578
F1.9691296960055913
sI4579
F1.9691296960055913
sI4580
F1.9691296960055913
sI4581
F1.9691296960055913
sI4582
F1.9691296960055913
sI4583
F1.9691296960055913
sI4584
F1.9691296960055913
sI4585
F1.9691296960055913
sI4586
F1.9691296960055913
sI4587
F1.9691296960055913
sI4588
F1.9691296960055913
sI4589
F1.9691296960055913
sI4590
F1.9691296960055913
sI4591
F1.9691296960055913
sI4592
F1.9691296960055913
sI4593
F1.9691296960055913
sI4594
F1.9691296960055913
sI4595
F1.9691296960055913
sI4596
F1.9691296960055913
sI4597
F1.9691296960055913
sI4598
F1.9691296960055913
sI4599
F1.9691296960055913
sI4600
F1.9691296960055913
sI4601
F1.9691296960055913
sI4602
F1.9691296960055913
sI4603
F1.9691296960055913
sI4604
F1.9691296960055913
sI4605
F1.9691296960055913
sI4606
F1.9691296960055913
sI4607
F1.9691296960055913
sI4608
F1.9691296960055913
sI4609
F1.9691296960055913
sI4610
F1.9691296960055913
sI4611
F1.9691296960055913
sI4612
F1.9691296960055913
sI4613
F1.9691296960055913
sI4614
F1.9691296960055913
sI4615
F1.9691296960055913
sI4616
F1.9691296960055913
sI4617
F1.9691296960055913
sI4618
F1.9691296960055913
sI4619
F1.9691296960055913
sI4620
F1.9691296960055913
sI4621
F1.9691296960055913
sI4622
F1.9691296960055913
sI4623
F1.9691296960055913
sI4624
F1.9691296960055913
sI4625
F1.9691296960055913
sI4626
F1.9691296960055913
sI4627
F1.9691296960055913
sI4628
F1.9691296960055913
sI4629
F1.9691296960055913
sI4630
F1.9691296960055913
sI4631
F1.9691296960055913
sI4632
F1.9691296960055913
sI4633
F1.9691296960055913
sI4634
F1.9691296960055913
sI4635
F1.9691296960055913
sI4636
F1.9691296960055913
sI4637
F1.9691296960055913
sI4638
F1.9691296960055913
sI4639
F1.9691296960055913
sI4640
F1.9691296960055913
sI4641
F1.9691296960055913
sI4642
F1.9691296960055913
sI4643
F1.9691296960055913
sI4644
F1.9691296960055913
sI4645
F1.9691296960055913
sI4646
F1.9691296960055913
sI4647
F1.9691296960055913
sI4648
F1.9691296960055913
sI4649
F1.9691296960055913
sI4650
F1.9691296960055913
sI4651
F1.9691296960055913
sI4652
F1.9691296960055913
sI4653
F1.9691296960055913
sI4654
F1.9691296960055913
sI4655
F1.9691296960055913
sI4656
F1.9691296960055913
sI4657
F1.9691296960055913
sI4658
F1.9691296960055913
sI4659
F1.9691296960055913
sI4660
F1.9691296960055913
sI4661
F1.9691296960055913
sI4662
F1.9691296960055913
sI4663
F1.9691296960055913
sI4664
F1.9691296960055913
sI4665
F1.9691296960055913
sI4666
F1.9691296960055913
sI4667
F1.9691296960055913
sI4668
F1.9691296960055913
sI4669
F1.9691296960055913
sI4670
F1.9691296960055913
sI4671
F1.9691296960055913
sI4672
F1.9691296960055913
sI4673
F1.9691296960055913
sI4674
F1.9691296960055913
sI4675
F1.9691296960055913
sI4676
F1.9691296960055913
sI4677
F1.9691296960055913
sI4678
F1.9691296960055913
sI4679
F1.9691296960055913
sI4680
F1.9691296960055913
sI4681
F1.9691296960055913
sI4682
F1.9691296960055913
sI4683
F1.9691296960055913
sI4684
F1.9691296960055913
sI4685
F1.9691296960055913
sI4686
F1.9691296960055913
sI4687
F1.9691296960055913
sI4688
F1.9691296960055913
sI4689
F1.9691296960055913
sI4690
F1.9691296960055913
sI4691
F1.9691296960055913
sI4692
F1.9691296960055913
sI4693
F1.9691296960055913
sI4694
F1.9691296960055913
sI4695
F1.9691296960055913
sI4696
F1.9691296960055913
sI4697
F1.9691296960055913
sI4698
F1.9691296960055913
sI4699
F1.9691296960055913
sI4700
F1.9691296960055913
sI4701
F1.9691296960055913
sI4702
F1.9691296960055913
sI4703
F1.9691296960055913
sI4704
F1.9691296960055913
sI4705
F1.9691296960055913
sI4706
F1.9691296960055913
sI4707
F1.9691296960055913
sI4708
F1.9691296960055913
sI4709
F1.9691296960055913
sI4710
F1.9691296960055913
sI4711
F1.9691296960055913
sI4712
F1.9691296960055913
sI4713
F1.9691296960055913
sI4714
F1.9691296960055913
sI4715
F1.9691296960055913
sI4716
F1.9691296960055913
sI4717
F1.9691296960055913
sI4718
F1.9691296960055913
sI4719
F1.9691296960055913
sI4720
F1.9691296960055913
sI4721
F1.9691296960055913
sI4722
F1.9691296960055913
sI4723
F1.9691296960055913
sI4724
F1.9691296960055913
sI4725
F1.9691296960055913
sI4726
F1.9691296960055913
sI4727
F1.9691296960055913
sI4728
F1.9691296960055913
sI4729
F1.9691296960055913
sI4730
F1.9691296960055913
sI4731
F1.9691296960055913
sI4732
F1.9691296960055913
sI4733
F1.9691296960055913
sI4734
F1.9691296960055913
sI4735
F1.9691296960055913
sI4736
F1.9691296960055913
sI4737
F1.9691296960055913
sI4738
F1.9691296960055913
sI4739
F1.9691296960055913
sI4740
F1.9691296960055913
sI4741
F1.9691296960055913
sI4742
F1.9691296960055913
sI4743
F1.9691296960055913
sI4744
F1.9691296960055913
sI4745
F1.9691296960055913
sI4746
F1.9691296960055913
sI4747
F1.9691296960055913
sI4748
F1.9691296960055913
sI4749
F1.9691296960055913
sI4750
F1.9691296960055913
sI4751
F1.9691296960055913
sI4752
F1.9691296960055913
sI4753
F1.9691296960055913
sI4754
F1.9691296960055913
sI4755
F1.9691296960055913
sI4756
F1.9691296960055913
sI4757
F1.9691296960055913
sI4758
F1.9691296960055913
sI4759
F1.9691296960055913
sI4760
F1.9691296960055913
sI4761
F1.9691296960055913
sI4762
F1.9691296960055913
sI4763
F1.9691296960055913
sI4764
F1.9691296960055913
sI4765
F1.9691296960055913
sI4766
F1.9691296960055913
sI4767
F1.9691296960055913
sI4768
F1.9691296960055913
sI4769
F1.9691296960055913
sI4770
F1.9691296960055913
sI4771
F1.9691296960055913
sI4772
F1.9691296960055913
sI4773
F1.9691296960055913
sI4774
F1.9691296960055913
sI4775
F1.9691296960055913
sI4776
F1.9691296960055913
sI4777
F1.9691296960055913
sI4778
F1.9691296960055913
sI4779
F1.9691296960055913
sI4780
F1.9691296960055913
sI4781
F1.9691296960055913
sI4782
F1.9691296960055913
sI4783
F1.9691296960055913
sI4784
F1.9691296960055913
sI4785
F1.9691296960055913
sI4786
F1.9691296960055913
sI4787
F1.9691296960055913
sI4788
F1.9691296960055913
sI4789
F1.9691296960055913
sI4790
F1.9691296960055913
sI4791
F1.9691296960055913
sI4792
F1.9691296960055913
sI4793
F1.9691296960055913
sI4794
F1.9691296960055913
sI4795
F1.9691296960055913
sI4796
F1.9691296960055913
sI4797
F1.9691296960055913
sI4798
F1.9691296960055913
sI4799
F1.9691296960055913
sI4800
F1.9691296960055913
sI4801
F1.9691296960055913
sI4802
F1.9691296960055913
sI4803
F1.9691296960055913
sI4804
F1.9691296960055913
sI4805
F1.9691296960055913
sI4806
F1.9691296960055913
sI4807
F1.9691296960055913
sI4808
F1.9691296960055913
sI4809
F1.9691296960055913
sI4810
F1.9691296960055913
sI4811
F1.9691296960055913
sI4812
F1.9691296960055913
sI4813
F1.9691296960055913
sI4814
F1.9691296960055913
sI4815
F1.9691296960055913
sI4816
F1.9691296960055913
sI4817
F1.9691296960055913
sI4818
F1.9691296960055913
sI4819
F1.9691296960055913
sI4820
F1.9691296960055913
sI4821
F1.9691296960055913
sI4822
F1.9691296960055913
sI4823
F1.9691296960055913
sI4824
F1.9691296960055913
sI4825
F1.9691296960055913
sI4826
F1.9691296960055913
sI4827
F1.9691296960055913
sI4828
F1.9691296960055913
sI4829
F1.9691296960055913
sI4830
F1.9691296960055913
sI4831
F1.9691296960055913
sI4832
F1.9691296960055913
sI4833
F1.9691296960055913
sI4834
F1.9691296960055913
sI4835
F1.9691296960055913
sI4836
F1.9691296960055913
sI4837
F1.9691296960055913
sI4838
F1.9691296960055913
sI4839
F1.9691296960055913
sI4840
F1.9691296960055913
sI4841
F1.9691296960055913
sI4842
F1.9691296960055913
sI4843
F1.9691296960055913
sI4844
F1.9691296960055913
sI4845
F1.9691296960055913
sI4846
F1.9691296960055913
sI4847
F1.9691296960055913
sI4848
F1.9529842141276319
sI4849
F1.9529842141276319
sI4850
F1.9529842141276319
sI4851
F1.9529842141276319
sI4852
F1.9529842141276319
sI4853
F1.9529842141276319
sI4854
F1.9529842141276319
sI4855
F1.9529842141276319
sI4856
F1.9529842141276319
sI4857
F1.9529842141276319
sI4858
F1.9529842141276319
sI4859
F1.9529842141276319
sI4860
F1.9529842141276319
sI4861
F1.9529842141276319
sI4862
F1.9529842141276319
sI4863
F1.9529842141276319
sI4864
F1.9529842141276319
sI4865
F1.9529842141276319
sI4866
F1.9529842141276319
sI4867
F1.9529842141276319
sI4868
F1.9529842141276319
sI4869
F1.9529842141276319
sI4870
F1.9529842141276319
sI4871
F1.9529842141276319
sI4872
F1.9529842141276319
sI4873
F1.9529842141276319
sI4874
F1.9529842141276319
sI4875
F1.9529842141276319
sI4876
F1.9529842141276319
sI4877
F1.9529842141276319
sI4878
F1.9529842141276319
sI4879
F1.9529842141276319
sI4880
F1.9529842141276319
sI4881
F1.9529842141276319
sI4882
F1.9529842141276319
sI4883
F1.9529842141276319
sI4884
F1.9529842141276319
sI4885
F1.9529842141276319
sI4886
F1.9529842141276319
sI4887
F1.9529842141276319
sI4888
F1.9529842141276319
sI4889
F1.9529842141276319
sI4890
F1.9529842141276319
sI4891
F1.9529842141276319
sI4892
F1.9529842141276319
sI4893
F1.9529842141276319
sI4894
F1.9529842141276319
sI4895
F1.9529842141276319
sI4896
F1.9529842141276319
sI4897
F1.9529842141276319
sI4898
F1.9529842141276319
sI4899
F1.9529842141276319
sI4900
F1.9529842141276319
sI4901
F1.9529842141276319
sI4902
F1.9529842141276319
sI4903
F1.9529842141276319
sI4904
F1.9529842141276319
sI4905
F1.9529842141276319
sI4906
F1.9529842141276319
sI4907
F1.9529842141276319
sI4908
F1.9529842141276319
sI4909
F1.9529842141276319
sI4910
F1.9529842141276319
sI4911
F1.9529842141276319
sI4912
F1.9529842141276319
sI4913
F1.9529842141276319
sI4914
F1.9529842141276319
sI4915
F1.9529842141276319
sI4916
F1.9529842141276319
sI4917
F1.9529842141276319
sI4918
F1.9529842141276319
sI4919
F1.9529842141276319
sI4920
F1.9529842141276319
sI4921
F1.9529842141276319
sI4922
F1.9529842141276319
sI4923
F1.9529842141276319
sI4924
F1.9529842141276319
sI4925
F1.9529842141276319
sI4926
F1.9529842141276319
sI4927
F1.9529842141276319
sI4928
F1.9529842141276319
sI4929
F1.9529842141276319
sI4930
F1.9529842141276319
sI4931
F1.9529842141276319
sI4932
F1.9529842141276319
sI4933
F1.9529842141276319
sI4934
F1.9529842141276319
sI4935
F1.9529842141276319
sI4936
F1.9529842141276319
sI4937
F1.9529842141276319
sI4938
F1.9529842141276319
sI4939
F1.9529842141276319
sI4940
F1.9529842141276319
sI4941
F1.9529842141276319
sI4942
F1.9589227133064433
sI4943
F1.9589227133064433
sI4944
F1.9589227133064433
sI4945
F1.9589227133064433
sI4946
F1.9589227133064433
sI4947
F1.9589227133064433
sI4948
F1.9589227133064433
sI4949
F1.9589227133064433
sI4950
F1.9589227133064433
sI4951
F1.9589227133064433
sI4952
F1.9589227133064433
sI4953
F1.9589227133064433
sI4954
F1.9589227133064433
sI4955
F1.9589227133064433
sI4956
F1.9589227133064433
sI4957
F1.9589227133064433
sI4958
F1.9589227133064433
sI4959
F1.9589227133064433
sI4960
F1.9589227133064433
sI4961
F1.9589227133064433
sI4962
F1.9589227133064433
sI4963
F1.9589227133064433
sI4964
F1.9589227133064433
sI4965
F1.9589227133064433
sI4966
F1.9589227133064433
sI4967
F1.9589227133064433
sI4968
F1.9589227133064433
sI4969
F1.9589227133064433
sI4970
F1.9589227133064433
sI4971
F1.9589227133064433
sI4972
F1.9589227133064433
sI4973
F1.9589227133064433
sI4974
F1.9589227133064433
sI4975
F1.9589227133064433
sI4976
F1.9589227133064433
sI4977
F1.9589227133064433
sI4978
F1.9589227133064433
sI4979
F1.9589227133064433
sI4980
F1.9589227133064433
sI4981
F1.9589227133064433
sI4982
F1.9589227133064433
sI4983
F1.9589227133064433
sI4984
F1.9589227133064433
sI4985
F1.9589227133064433
sI4986
F1.9589227133064433
sI4987
F1.9589227133064433
sI4988
F1.9589227133064433
sI4989
F1.9589227133064433
sI4990
F1.9589227133064433
sI4991
F1.9589227133064433
sI4992
F1.9589227133064433
sI4993
F1.9589227133064433
sI4994
F1.9589227133064433
sI4995
F1.9589227133064433
sI4996
F1.9589227133064433
sI4997
F1.9589227133064433
sI4998
F1.9589227133064433
sI4999
F1.9589227133064433
sI5000
F1.9589227133064433
sI5001
F1.9589227133064433
sI5002
F1.9589227133064433
sI5003
F1.9589227133064433
sI5004
F1.9589227133064433
sI5005
F1.9589227133064433
sI5006
F1.9589227133064433
sI5007
F1.9589227133064433
sI5008
F1.9589227133064433
sI5009
F1.9589227133064433
sI5010
F1.9589227133064433
sI5011
F1.9589227133064433
sI5012
F1.9589227133064433
sI5013
F1.9589227133064433
sI5014
F1.9589227133064433
sI5015
F1.9589227133064433
sI5016
F1.9589227133064433
sI5017
F1.9589227133064433
sI5018
F1.9589227133064433
sI5019
F1.9589227133064433
sI5020
F1.9589227133064433
sI5021
F1.9589227133064433
sI5022
F1.9589227133064433
sI5023
F1.9589227133064433
sI5024
F1.9589227133064433
sI5025
F1.9589227133064433
sI5026
F1.9589227133064433
sI5027
F1.9589227133064433
sI5028
F1.9589227133064433
sI5029
F1.9589227133064433
sI5030
F1.9589227133064433
sI5031
F1.9589227133064433
sI5032
F1.9589227133064433
sI5033
F1.9589227133064433
sI5034
F1.9589227133064433
sI5035
F1.9589227133064433
sI5036
F1.9589227133064433
sI5037
F1.9589227133064433
sI5038
F1.9589227133064433
sI5039
F1.9589227133064433
sI5040
F1.9589227133064433
sI5041
F1.9589227133064433
sI5042
F1.9589227133064433
sI5043
F1.9589227133064433
sI5044
F1.9589227133064433
sI5045
F1.9589227133064433
sI5046
F1.9589227133064433
sI5047
F1.9589227133064433
sI5048
F1.9589227133064433
sI5049
F1.9589227133064433
sI5050
F1.9589227133064433
sI5051
F1.9589227133064433
sI5052
F1.9589227133064433
sI5053
F1.9589227133064433
sI5054
F1.9589227133064433
sI5055
F1.9589227133064433
sI5056
F1.9589227133064433
sI5057
F1.9589227133064433
sI5058
F1.968914257448739
sI5059
F1.968914257448739
sI5060
F1.968914257448739
sI5061
F1.968914257448739
sI5062
F1.968914257448739
sI5063
F1.968914257448739
sI5064
F1.968914257448739
sI5065
F1.968914257448739
sI5066
F1.968914257448739
sI5067
F1.968914257448739
sI5068
F1.968914257448739
sI5069
F1.968914257448739
sI5070
F1.968914257448739
sI5071
F1.968914257448739
sI5072
F1.968914257448739
sI5073
F1.968914257448739
sI5074
F1.968914257448739
sI5075
F1.968914257448739
sI5076
F1.968914257448739
sI5077
F1.968914257448739
sI5078
F1.968914257448739
sI5079
F1.968914257448739
sI5080
F1.968914257448739
sI5081
F1.968914257448739
sI5082
F1.968914257448739
sI5083
F1.968914257448739
sI5084
F1.968914257448739
sI5085
F1.968914257448739
sI5086
F1.968914257448739
sI5087
F1.968914257448739
sI5088
F1.968914257448739
sI5089
F1.968914257448739
sI5090
F1.968914257448739
sI5091
F1.968914257448739
sI5092
F1.968914257448739
sI5093
F1.968914257448739
sI5094
F1.968914257448739
sI5095
F1.968914257448739
sI5096
F1.968914257448739
sI5097
F1.968914257448739
sI5098
F1.968914257448739
sI5099
F1.968914257448739
sI5100
F1.968914257448739
sI5101
F1.968914257448739
sI5102
F1.968914257448739
sI5103
F1.968914257448739
sI5104
F1.968914257448739
sI5105
F1.968914257448739
sI5106
F1.968914257448739
sI5107
F1.968914257448739
sI5108
F1.968914257448739
sI5109
F1.968914257448739
sI5110
F1.968914257448739
sI5111
F1.968914257448739
sI5112
F1.968914257448739
sI5113
F1.968914257448739
sI5114
F1.968914257448739
sI5115
F1.968914257448739
sI5116
F1.968914257448739
sI5117
F1.968914257448739
sI5118
F1.968914257448739
sI5119
F1.968914257448739
sI5120
F1.968914257448739
sI5121
F1.968914257448739
sI5122
F1.968914257448739
sI5123
F1.968914257448739
sI5124
F1.968914257448739
sI5125
F1.968914257448739
sI5126
F1.968914257448739
sI5127
F1.968914257448739
sI5128
F1.968914257448739
sI5129
F1.968914257448739
sI5130
F1.968914257448739
sI5131
F1.968914257448739
sI5132
F1.968914257448739
sI5133
F1.968914257448739
sI5134
F1.968914257448739
sI5135
F1.968914257448739
sI5136
F1.968914257448739
sI5137
F1.968914257448739
sI5138
F1.968914257448739
sI5139
F1.968914257448739
sI5140
F1.968914257448739
sI5141
F1.968914257448739
sI5142
F1.968914257448739
sI5143
F1.968914257448739
sI5144
F1.968914257448739
sI5145
F1.968914257448739
sI5146
F1.968914257448739
sI5147
F1.968914257448739
sI5148
F1.968914257448739
sI5149
F1.968914257448739
sI5150
F1.968914257448739
sI5151
F1.968914257448739
sI5152
F1.968914257448739
sI5153
F1.968914257448739
sI5154
F1.968914257448739
sI5155
F1.968914257448739
sI5156
F1.968914257448739
sI5157
F1.968914257448739
sI5158
F1.968914257448739
sI5159
F1.968914257448739
sI5160
F1.968914257448739
sI5161
F1.968914257448739
sI5162
F1.968914257448739
sI5163
F1.968914257448739
sI5164
F1.968914257448739
sI5165
F1.968914257448739
sI5166
F1.968914257448739
sI5167
F1.968914257448739
sI5168
F1.968914257448739
sI5169
F1.968914257448739
sI5170
F1.968914257448739
sI5171
F1.968914257448739
sI5172
F1.968914257448739
sI5173
F1.968914257448739
sI5174
F1.968914257448739
sI5175
F1.968914257448739
sI5176
F1.968914257448739
sI5177
F1.968914257448739
sI5178
F1.968914257448739
sI5179
F1.968914257448739
sI5180
F1.968914257448739
sI5181
F1.968914257448739
sI5182
F1.968914257448739
sI5183
F1.968914257448739
sI5184
F1.968914257448739
sI5185
F1.968914257448739
sI5186
F1.968914257448739
sI5187
F1.968914257448739
sI5188
F1.968914257448739
sI5189
F1.968914257448739
sI5190
F1.968914257448739
sI5191
F1.968914257448739
sI5192
F1.968914257448739
sI5193
F1.968914257448739
sI5194
F1.968914257448739
sI5195
F1.968914257448739
sI5196
F1.968914257448739
sI5197
F1.968914257448739
sI5198
F1.968914257448739
sI5199
F1.968914257448739
sI5200
F1.968914257448739
sI5201
F1.968914257448739
sI5202
F1.968914257448739
sI5203
F1.968914257448739
sI5204
F1.968914257448739
sI5205
F1.968914257448739
sI5206
F1.968914257448739
sI5207
F1.968914257448739
sI5208
F1.968914257448739
sI5209
F1.968914257448739
sI5210
F1.968914257448739
sI5211
F1.968914257448739
sI5212
F1.968914257448739
sI5213
F1.968914257448739
sI5214
F1.968914257448739
sI5215
F1.968914257448739
sI5216
F1.968914257448739
sI5217
F1.968914257448739
sI5218
F1.968914257448739
sI5219
F1.968914257448739
sI5220
F1.968914257448739
sI5221
F1.968914257448739
sI5222
F1.968914257448739
sI5223
F1.968914257448739
sI5224
F1.968914257448739
sI5225
F1.968914257448739
sI5226
F1.968914257448739
sI5227
F1.968914257448739
sI5228
F1.968914257448739
sI5229
F1.968914257448739
sI5230
F1.968914257448739
sI5231
F1.968914257448739
sI5232
F1.968914257448739
sI5233
F1.968914257448739
sI5234
F1.968914257448739
sI5235
F1.968914257448739
sI5236
F1.968914257448739
sI5237
F1.968914257448739
sI5238
F1.968914257448739
sI5239
F1.968914257448739
sI5240
F1.968914257448739
sI5241
F1.968914257448739
sI5242
F1.968914257448739
sI5243
F1.968914257448739
sI5244
F1.968914257448739
sI5245
F1.968914257448739
sI5246
F1.968914257448739
sI5247
F1.968914257448739
sI5248
F1.968914257448739
sI5249
F1.968914257448739
sI5250
F1.968914257448739
sI5251
F1.968914257448739
sI5252
F1.968914257448739
sI5253
F1.968914257448739
sI5254
F1.968914257448739
sI5255
F1.968914257448739
sI5256
F1.968914257448739
sI5257
F1.968914257448739
sI5258
F1.968914257448739
sI5259
F1.968914257448739
sI5260
F1.968914257448739
sI5261
F1.968914257448739
sI5262
F1.968914257448739
sI5263
F1.968914257448739
sI5264
F1.968914257448739
sI5265
F1.968914257448739
sI5266
F1.968914257448739
sI5267
F1.968914257448739
sI5268
F1.968914257448739
sI5269
F1.968914257448739
sI5270
F1.968914257448739
sI5271
F1.968914257448739
sI5272
F1.968914257448739
sI5273
F1.968914257448739
sI5274
F1.968914257448739
sI5275
F1.968914257448739
sI5276
F1.968914257448739
sI5277
F1.968914257448739
sI5278
F1.968914257448739
sI5279
F1.968914257448739
sI5280
F1.968914257448739
sI5281
F1.968914257448739
sI5282
F1.968914257448739
sI5283
F1.968914257448739
sI5284
F1.968914257448739
sI5285
F1.968914257448739
sI5286
F1.968914257448739
sI5287
F1.968914257448739
sI5288
F1.968914257448739
sI5289
F1.968914257448739
sI5290
F1.968914257448739
sI5291
F1.968914257448739
sI5292
F1.968914257448739
sI5293
F1.968914257448739
sI5294
F1.968914257448739
sI5295
F1.968914257448739
sI5296
F1.968914257448739
sI5297
F1.968914257448739
sI5298
F1.968914257448739
sI5299
F1.968914257448739
sI5300
F1.9393676933306701
sI5301
F1.9393676933306701
sI5302
F1.9393676933306701
sI5303
F1.9393676933306701
sI5304
F1.9393676933306701
sI5305
F1.9393676933306701
sI5306
F1.9393676933306701
sI5307
F1.9393676933306701
sI5308
F1.9393676933306701
sI5309
F1.9393676933306701
sI5310
F1.9393676933306701
sI5311
F1.9393676933306701
sI5312
F1.9393676933306701
sI5313
F1.9393676933306701
sI5314
F1.9393676933306701
sI5315
F1.9393676933306701
sI5316
F1.9393676933306701
sI5317
F1.9393676933306701
sI5318
F1.9393676933306701
sI5319
F1.9393676933306701
sI5320
F1.9393676933306701
sI5321
F1.9393676933306701
sI5322
F1.9393676933306701
sI5323
F1.9393676933306701
sI5324
F1.9393676933306701
sI5325
F1.9393676933306701
sI5326
F1.9393676933306701
sI5327
F1.9393676933306701
sI5328
F1.9393676933306701
sI5329
F1.9393676933306701
sI5330
F1.9393676933306701
sI5331
F1.9393676933306701
sI5332
F1.9393676933306701
sI5333
F1.9393676933306701
sI5334
F1.9393676933306701
sI5335
F1.9393676933306701
sI5336
F1.9393676933306701
sI5337
F1.9393676933306701
sI5338
F1.9393676933306701
sI5339
F1.9393676933306701
sI5340
F1.9393676933306701
sI5341
F1.9393676933306701
sI5342
F1.9393676933306701
sI5343
F1.9393676933306701
sI5344
F1.9393676933306701
sI5345
F1.9393676933306701
sI5346
F1.9393676933306701
s.