(lp1
(dp2
I1
F612.02166305453284
sI2
F484.36684459649342
sI3
F31.487051587712273
sI4
F14.305155756952493
sI5
F2.377420937923115
sI6
F1.8765891093211868
sI7
F1.9540242148350069
sI8
F1.9622629577931905
sI9
F1.9679513347610111
sI10
F2.0164694628913282
sI11
F2.0199203743400895
sI12
F2.0142718843101322
sI13
F1.9985211723237346
sI14
F1.9716354040947621
sa(dp3
I1
F4424.9641964969887
sI2
F1204.2502395581505
sI3
F220.91536314352101
sI4
F111.23833831585385
sI5
F96.332316620325173
sI6
F85.38007394467887
sI7
F2.4573930786896625
sI8
F1.8390699505780843
sI9
F2.1703998829284892
sI10
F2.0020091984943247
sI11
F2.0004427518812711
sI12
F2.0000246626584084
sa(dp4
I1
F1462.1078279884114
sI2
F485.35066499926711
sI3
F338.06104224493055
sI4
F99.817210988102829
sI5
F41.235236569259612
sI6
F32.678536400508229
sI7
F4.5737805396015503
sI8
F2.3393578114351303
sI9
F1.8052103752771687
sI10
F1.8775688768902052
sI11
F1.9904260500278663
sI12
F2.0000841649188801
sI13
F1.9961246965087003
sI14
F1.9973603821084231
sa(dp5
I1
F599.99026058360016
sI2
F419.5095022010118
sI3
F332.26922185251982
sI4
F235.34517636778409
sI5
F107.73288984777268
sI6
F74.097272922723263
sI7
F39.424163482317809
sI8
F9.5672363139986061
sI9
F1.9470147612174014
sI10
F2.0495879126289438
sI11
F2.046102726411736
sI12
F2.0633679432667136
sI13
F1.9881145541882019
sI14
F1.9785498883772763
sI15
F2.0045369815667899
sI16
F2.0029380997105757
sI17
F1.9983954650946241
sa(dp6
I1
F3816.5020630140152
sI2
F726.85087637719062
sI3
F28.148581377264918
sI4
F13.141160788805806
sI5
F5.4252381705285195
sI6
F4.4098405359707851
sI7
F0.6840008143961307
sI8
F2.8763293064026718
sI9
F2.1748677590888814
sI10
F2.0973315290924774
sI11
F1.9495909710415726
sI12
F2.0082036325806283
sI13
F2.0424504134030674
sI14
F1.9765163541699424
sI15
F2.0079741775218527
sa.