(lp1
(dp2
I1
F1475.1301655420596
sI2
F970.52600598832032
sI3
F606.15763192353495
sI4
F459.67465738880787
sI5
F259.37260191991481
sI6
F257.54213159667603
sI7
F115.52518601329963
sI8
F32.525212510847069
sI9
F14.113718492584853
sI10
F13.400852412667934
sI11
F11.217082035350934
sI12
F5.3051443327080214
sI13
F3.4637517727488003
sI14
F1.6755860635559625
sI15
F1.7743765616335851
sI16
F1.9279561946446275
sI17
F1.9496552681339252
sI18
F1.9626780451323338
sI19
F1.9827557184122784
sI20
F1.994857047696734
sI21
F1.9910436643312548
sI22
F2.0154769880886576
sI23
F2.0161933053296361
sI24
F2.0442911097006333
sI25
F2.0202591279103119
sI26
F1.9963338240018389
sI27
F1.9399072686480765
sI28
F2.0123335127556583
sI29
F1.9798514003677694
sI30
F2.0056544181946356
sI31
F1.9898611645017301
sI32
F2.0016413681889662
sI33
F1.9923813317850265
sI34
F1.9476339471959159
sI35
F1.9672186320528713
sI36
F1.9889977665226641
sI37
F1.9751913270555201
sI38
F2.0228389696621689
sI39
F1.9888239180187088
sI40
F2.012484242849764
sI41
F2.0098514699593535
sI42
F1.9905190180900141
sI43
F2.0111474227542798
sI44
F1.9919338279075658
sI45
F1.985573875749141
sI46
F1.9702941817155704
sI47
F2.037522216656555
sI48
F1.9604973206659952
sI49
F2.0120606433352837
sI50
F1.9188021254003105
sI51
F2.0618116835616536
sI52
F1.996808004436974
sI53
F2.0314223430623186
sI54
F1.9817229425532155
sI55
F2.0019089197347877
sI56
F1.9973453822370377
sI57
F2.0013961267636211
sI58
F1.9307525631922289
sI59
F1.9238577615418697
sI60
F1.9784340941180756
sI61
F1.9641923306661133
sI62
F1.9715685633024536
sI63
F2.0000431536400645
sI64
F1.9938077626942778
sI65
F1.9915333927913821
sI66
F1.9922579142035346
sI67
F2.0219526319554584
sI68
F2.0310594020768558
sI69
F1.985755920596898
sI70
F2.0687603723873571
sI71
F2.098352100490712
sI72
F2.0465632178003306
sI73
F1.9937206746909744
sI74
F1.9811545044689063
sI75
F1.9924631240759751
sI76
F2.0004181540456365
sI77
F2.0162599685330966
sI78
F1.9460293700721389
sI79
F1.9487773612928259
sI80
F1.936109630654439
sI81
F2.0022548641738713
sa(dp3
I1
F2135.9421421430757
sI2
F1757.8531434847555
sI3
F1115.0658525433435
sI4
F643.19787652243497
sI5
F291.6475449867948
sI6
F17.141187497053124
sI7
F3.8310130714392838
sI8
F2.8068522110200131
sI9
F2.3861479214064572
sI10
F2.0986889064506125
sI11
F2.0428109800624492
sI12
F1.9503485049976323
sI13
F2.0427269465609537
sI14
F2.0160735981841285
sI15
F1.989193958013374
sI16
F1.9683275263905557
sI17
F1.9798426571163339
sI18
F1.9749218527862511
sI19
F1.9821610035178361
sI20
F2.0018601010190835
sI21
F1.9887606847242598
sI22
F2.0278241815729223
sI23
F1.9789669512123007
sI24
F1.9749631533303775
sI25
F1.9920942300226727
sI26
F1.9753816738133134
sI27
F2.0100821170187047
sI28
F2.0022980512643938
sI29
F1.9934858538444158
sI30
F1.9922806639382202
sI31
F1.9902100236553981
sI32
F2.0136096880632421
sI33
F2.0140404519343695
sI34
F1.9641483655697911
sI35
F2.0636526635083041
sI36
F2.0677249178805615
sI37
F1.9427685251525728
sI38
F1.9215136509817097
sI39
F1.9361067231554272
sI40
F2.050323386428957
sI41
F2.0298809331366758
sI42
F1.9746752895938555
sI43
F2.0377775429899034
sI44
F2.0182994045881548
sI45
F2.0258494097838042
sI46
F1.9603506210165276
sI47
F1.9999525804949871
sI48
F2.0405062269325773
sI49
F1.9885870970566746
sI50
F2.0424493300232589
sI51
F2.0289571966591526
sI52
F2.0119204604388781
sI53
F1.95999397301562
sI54
F1.9600798865111433
sI55
F1.968937542940226
sI56
F1.9275762726679373
sI57
F2.0532810559863011
sI58
F1.9955317613442689
sI59
F1.9927279532029303
sI60
F2.0579285558833842
sI61
F2.06344533821167
sI62
F2.0170288012121342
sI63
F1.9738064022227888
sI64
F2.0269653683001954
sI65
F1.9858793663184244
sI66
F2.0430880464213996
sI67
F1.9519737201802447
sI68
F1.9753894269513643
sI69
F1.9786780471266658
sI70
F2.0182489624177
sI71
F2.0212596688177786
sI72
F2.0102288736200746
sI73
F2.0037024145153124
sI74
F2.0178976529602641
sI75
F1.9935060442067218
sI76
F2.0044114373969362
sI77
F1.990061077814965
sa(dp4
I1
F5057.2722871818205
sI2
F3705.5516478589916
sI3
F1272.1214705936518
sI4
F860.01980978905692
sI5
F422.44790910724942
sI6
F51.184057132125417
sI7
F38.241710459842956
sI8
F4.1907812464394958
sI9
F2.451435851036103
sI10
F2.0677104045335448
sI11
F2.0767059258491485
sI12
F2.0715710508371457
sI13
F1.9892242372225057
sI14
F2.0224509051224713
sI15
F1.9790808579892292
sI16
F2.0078976005626177
sI17
F1.9855151237269235
sI18
F1.9488723228981986
sI19
F2.0272883933337331
sI20
F2.0364443884361565
sI21
F2.0355342341993889
sI22
F1.9758697599219956
sI23
F1.9790283235907695
sI24
F2.0072449288043672
sI25
F2.021895371226583
sI26
F1.9651418071230986
sI27
F1.9780600604285905
sI28
F2.0170003191524262
sI29
F2.0148413496302338
sI30
F1.9798689220697201
sI31
F2.0106032080402909
sI32
F1.9896523573670553
sI33
F1.9979190426379843
sI34
F2.0332912318627545
sI35
F1.9787748271838914
sI36
F2.004598936084987
sI37
F2.0059551131919093
sI38
F2.0474802958169773
sI39
F1.9693357615926859
sI40
F1.9607025188066773
sI41
F1.9500552684315458
sI42
F1.9464635704123816
sI43
F1.9727457900001253
sI44
F2.0350362112277884
sI45
F2.007986358996892
sI46
F2.0385172223179926
sI47
F1.9536113448605659
sI48
F2.0441851916341935
sI49
F1.9609877609331239
sI50
F1.9986634135058632
sI51
F2.0025487243679541
sI52
F2.0060687455235722
sI53
F1.9795407561305964
sI54
F1.9947428945728021
sI55
F2.0092422999553752
sI56
F1.9722926592031989
sI57
F1.9711787113995649
sI58
F1.9889986869197505
sI59
F1.9301644081432494
sI60
F2.054722784480461
sI61
F1.9891626637304642
sI62
F1.964247759923436
sI63
F1.958978182965819
sI64
F2.0431440404327601
sI65
F2.0089188793136401
sI66
F2.0027798678336044
sI67
F1.9968506642888908
sI68
F1.9986135799455216
sI69
F1.9901650353939988
sI70
F2.034124018964147
sI71
F2.0239399127449831
sI72
F2.0193382825528876
sI73
F2.0230785924953896
sa(dp5
I1
F1661.3196626813346
sI2
F129.48826044666612
sI3
F57.908183314054632
sI4
F30.346821068001539
sI5
F11.045333344926945
sI6
F7.4916998868659253
sI7
F2.4286345416977801
sI8
F1.6644703729473287
sI9
F2.317812019573136
sI10
F2.2591591727490226
sI11
F1.9316012798266926
sI12
F2.0010118542372819
sI13
F1.9938970287686923
sI14
F1.987195543352823
sI15
F2.0509863189923423
sI16
F2.0151125965856633
sI17
F2.0064952350306693
sI18
F1.9347460278658755
sI19
F1.9561173677265522
sI20
F1.9422788281141901
sI21
F2.0878630765045103
sI22
F2.0489009050891447
sI23
F1.9592199257971674
sI24
F1.9572097417709757
sI25
F1.9895484159113566
sI26
F1.9760202744532465
sI27
F1.9779099545411196
sI28
F1.963866129140132
sI29
F1.9684327416762681
sI30
F1.9635017810242454
sI31
F1.9857582447628006
sI32
F1.9477784044662185
sI33
F2.0419040445407934
sI34
F1.9684962168882001
sI35
F1.9746307072269389
sI36
F2.0072314474834538
sI37
F2.0087546869881554
sI38
F1.9964722906857952
sI39
F1.9272237469128395
sI40
F2.0046662994412801
sI41
F1.996575563323141
sI42
F1.992995735290422
sI43
F2.0312367473288737
sI44
F2.0136236576490534
sI45
F2.0306982608466062
sI46
F1.9731993489121475
sI47
F1.9790521079210164
sI48
F2.0551319441876412
sI49
F1.9494432167473701
sI50
F1.9619482887162818
sI51
F2.0043767971019957
sI52
F1.9842498883153716
sI53
F2.024549295508586
sI54
F2.0354337897213428
sI55
F1.9740420347949725
sI56
F1.9755283663008045
sI57
F2.0111495126050078
sI58
F1.9763284773714762
sI59
F1.9730179694710657
sI60
F2.031017783919923
sI61
F2.028215691030244
sI62
F1.9633892073213308
sI63
F2.0143672488706352
sI64
F1.9861130275196355
sI65
F1.9866658436075448
sI66
F1.9992057242495116
sI67
F2.0407257370030463
sI68
F2.005101260610803
sI69
F1.9586510699807398
sI70
F2.0342281022469426
sI71
F1.9876994509547103
sI72
F1.9518396711769483
sI73
F1.9495509394937935
sI74
F2.0557660982147352
sI75
F1.9749213111431418
sI76
F2.0278897300238126
sI77
F2.0171554112134045
sI78
F2.0250196285177147
sI79
F1.9798611059000351
sI80
F2.0114314497285237
sI81
F1.9982482996595947
sI82
F2.0188064731737136
sI83
F2.0201777413227062
sI84
F2.0225246005600028
sI85
F2.0146907948982933
sI86
F2.0093570387353004
sa(dp6
I1
F1633.8036038710679
sI2
F43.869358321536993
sI3
F9.03542014714251
sI4
F5.3483725028755567
sI5
F2.8867340242831787
sI6
F2.6083312724913079
sI7
F1.9636370806776342
sI8
F2.0294594612158106
sI9
F2.0121581233705697
sI10
F2.0089501756997463
sI11
F1.9807067478439708
sI12
F1.9779741374126207
sI13
F1.990519099310893
sI14
F2.0127869358513433
sI15
F2.0289990135619007
sI16
F1.9657017817283424
sI17
F2.0078966306749737
sI18
F1.945541775958497
sI19
F1.9932068528318374
sI20
F1.9937633702454367
sI21
F1.9939519749725736
sI22
F2.0209466028179639
sI23
F1.9843770938977625
sI24
F2.0335423846208056
sI25
F2.0268884185409775
sI26
F1.971938734629638
sI27
F2.0110949569334418
sI28
F2.0321115777746299
sI29
F2.019499237021507
sI30
F2.0034865770075725
sI31
F1.9932756551757169
sI32
F2.0159217792491306
sI33
F1.9948252763050858
sI34
F1.9562417444978351
sI35
F1.9625010693102738
sI36
F1.9450102941004423
sI37
F1.9567217893432793
sI38
F1.9647319490230895
sI39
F1.9553375477926047
sI40
F2.0273280829239084
sI41
F1.9544908629897231
sI42
F1.9775376058780316
sI43
F1.9785735345024797
sI44
F2.0148773728672431
sI45
F1.9908530890318101
sI46
F1.9975238120643786
sI47
F2.0370283258360673
sI48
F1.9901870179314334
sI49
F2.0379626858866557
sI50
F1.9846723257153134
sI51
F2.0179901921734782
sI52
F1.9879735250851394
sI53
F1.9801715906490829
sI54
F1.986193255489477
sI55
F2.0079989078615657
sI56
F2.0181796561712049
sI57
F2.0402334180242416
sI58
F1.9958974674050949
sI59
F1.9766283765124386
sI60
F2.0491770879267714
sI61
F2.0794457657174932
sI62
F2.062090015615452
sI63
F1.9977678878782805
sI64
F2.0243950088564002
sI65
F2.0018241795068623
sI66
F1.9762046924552701
sI67
F1.9737713996440038
sI68
F2.030216749266843
sI69
F2.0139942336005685
sI70
F2.0155758910805113
sI71
F2.0440541696285588
sI72
F2.0439151037314458
sI73
F2.0388275959649533
sI74
F2.03877111491146
sa(dp7
I1
F1249.0079497969452
sI2
F389.6657860557998
sI3
F247.09323240625014
sI4
F115.4984716954807
sI5
F32.935743229274109
sI6
F0.80459223415974357
sI7
F1.4614024133226109
sI8
F1.7714245181407373
sI9
F1.9797049546710683
sI10
F2.0135858271476641
sI11
F2.021421743065881
sI12
F1.9948741433336514
sI13
F1.9774800019116803
sI14
F2.0203587618443075
sI15
F2.0255333133799232
sI16
F1.9542915404421848
sI17
F2.0294318152912636
sI18
F2.0231387654322268
sI19
F2.0118227899580092
sI20
F2.0285385306067001
sI21
F2.0269486238206431
sI22
F2.0159601950886428
sI23
F2.0354620812205502
sI24
F1.9628712683638008
sI25
F1.9689026866181714
sI26
F2.0377221844471047
sI27
F1.9573381902212588
sI28
F2.0122371156398873
sI29
F1.9914005723183421
sI30
F2.0227230366982023
sI31
F1.974652223639624
sI32
F1.9968692082957147
sI33
F1.9852962100964493
sI34
F1.9812505986773701
sI35
F1.9689970373681573
sI36
F1.9993983054851863
sI37
F2.0037582111720251
sI38
F2.05862988765581
sI39
F2.0529170650525255
sI40
F1.9213121674814544
sI41
F2.0040887824747458
sI42
F1.9855150834243165
sI43
F2.0331622913854899
sI44
F2.0044388405425
sI45
F1.9969149400404551
sI46
F1.9818466549963476
sI47
F2.0160562020536874
sI48
F1.9885065444869152
sI49
F1.9810375450235469
sI50
F2.0472474750464316
sI51
F2.0128381748239024
sI52
F1.9874827443456584
sI53
F1.9791301685961606
sI54
F1.9951322003196417
sI55
F1.9787348873084394
sI56
F2.0605562789803304
sI57
F1.9327832836704326
sI58
F1.9374871356245467
sI59
F2.043445028863824
sI60
F1.967353841388598
sI61
F2.0035687340397983
sI62
F1.9816628497456423
sI63
F1.9998191204000639
sI64
F2.0038007305631855
sI65
F1.9992954552719395
sI66
F2.0339708987847462
sI67
F1.9508883166974169
sI68
F2.0397837923285955
sI69
F2.0079157339740146
sI70
F1.9938401434515955
sI71
F2.0029820948109993
sI72
F1.9804194295448225
sI73
F2.0076906277993309
sI74
F1.9966504424481142
sI75
F1.9982057061308787
sI76
F2.0112468373701868
sI77
F2.0158650243705631
sI78
F1.9741610192940127
sI79
F1.9788067217487937
sI80
F2.0011169153888968
sI81
F1.9958039013001736
sI82
F1.9982500490254211
sI83
F2.0078096357495832
sI84
F1.9548139248890097
sI85
F1.9591766547798948
sI86
F2.0221828463343359
sI87
F2.0410488514452503
sI88
F1.9379773079042779
sa(dp8
I1
F1052.2159953735299
sI2
F85.28062294453423
sI3
F52.260344371531737
sI4
F35.11165801048783
sI5
F0.064272077241957715
sI6
F2.9110475668517992
sI7
F2.4313605063025725
sI8
F1.9215472422123234
sI9
F1.9779231131159833
sI10
F1.9605908902984932
sI11
F2.0353802671634975
sI12
F1.9711889571620651
sI13
F1.9856447765764145
sI14
F1.9442021992732026
sI15
F2.0302485686083069
sI16
F2.0358921825093206
sI17
F1.9694028161017709
sI18
F2.0317141615413918
sI19
F2.0090249183978712
sI20
F2.0198879333826762
sI21
F1.9851798290736222
sI22
F2.035237559321641
sI23
F1.9797562208624597
sI24
F2.0022703358547442
sI25
F2.0101524479671595
sI26
F1.9856503071032063
sI27
F1.9662115135396783
sI28
F2.0216941236728876
sI29
F2.0146306117443675
sI30
F1.9557970899185688
sI31
F1.9997985339760764
sI32
F1.9978254360451249
sI33
F2.0021986601973101
sI34
F2.0078515274740303
sI35
F1.9727432387762924
sI36
F1.944032350556737
sI37
F2.0067112423964168
sI38
F1.9630248360838911
sI39
F2.0408391333290998
sI40
F1.9493542741250116
sI41
F1.9380854485849914
sI42
F2.0093282334779712
sI43
F2.019262806195528
sI44
F2.017618974439042
sI45
F2.0092223490477603
sI46
F1.9732666903228187
sI47
F1.9764659918314411
sI48
F1.9960372376114721
sI49
F1.973555572671241
sI50
F1.9506163437974038
sI51
F1.9846796194516219
sI52
F1.9258123422420614
sI53
F1.9779509207072086
sI54
F2.0068324696525197
sI55
F2.0158671854078896
sI56
F2.0539415604940117
sI57
F2.0457229515643718
sI58
F1.9801935123528132
sI59
F1.991468942201218
sI60
F2.0669785458195076
sI61
F2.0648834714730251
sI62
F2.0439160690034126
sI63
F1.9315559613449258
sI64
F2.0515090940980882
sI65
F2.0389172833262328
sI66
F1.9781154091868953
sI67
F1.9964948208304927
sI68
F2.0257382231221754
sI69
F1.9902676649515298
sI70
F2.0375142198011189
sI71
F1.9529655700008772
sI72
F2.0397873882211841
sI73
F1.9709431143973399
sI74
F2.008437237349626
sI75
F1.9987144150574621
sI76
F1.9830059935074809
sI77
F2.0008179847982985
sI78
F2.0098569322506492
sI79
F2.0089561052751361
sI80
F2.0626975261284026
sI81
F1.990901395346991
sa(dp9
I1
F1025.3568489424745
sI2
F515.47517602368555
sI3
F375.20051128933517
sI4
F96.115772427921968
sI5
F58.184031232338704
sI6
F20.449466850554764
sI7
F9.3821658163123924
sI8
F6.9307801089421215
sI9
F0.6822273885806589
sI10
F2.4084802932851335
sI11
F2.3285478506959469
sI12
F1.8685739580085818
sI13
F1.8955407789088292
sI14
F1.9279390072790412
sI15
F1.9311135423225039
sI16
F1.9845028194969254
sI17
F1.9619168506016567
sI18
F1.9391258856133795
sI19
F2.0084849713120638
sI20
F2.0029564808168039
sI21
F2.0080682504431353
sI22
F1.9773133521810875
sI23
F1.98278241041111
sI24
F2.0063011160751834
sI25
F1.9967799910417383
sI26
F1.9717464349903522
sI27
F1.9752723051273373
sI28
F1.9915730056010681
sI29
F2.0115236816880921
sI30
F2.0172546099300037
sI31
F2.0051217175454972
sI32
F1.9592879048090404
sI33
F1.9805250966096313
sI34
F1.9542656093580095
sI35
F2.0339034763957438
sI36
F1.9815768902402888
sI37
F1.9613636438009252
sI38
F2.0154120424430975
sI39
F2.0289523666450875
sI40
F1.9571997051072203
sI41
F2.0027010101331095
sI42
F2.0157324090292708
sI43
F2.016175025457593
sI44
F1.9743047070092108
sI45
F2.0244110014881382
sI46
F2.0244085439452504
sI47
F1.9890606561721984
sI48
F2.0157273374577569
sI49
F2.0511280512368781
sI50
F1.9661312115006715
sI51
F1.9916288757783318
sI52
F1.9739997648886634
sI53
F1.9838314761921905
sI54
F2.0075869962619044
sI55
F1.9847594682643699
sI56
F1.977747748229528
sI57
F2.0141250814575118
sI58
F2.0033853076324113
sI59
F1.9818809494590355
sI60
F2.0226758870712715
sI61
F1.9843026147196037
sI62
F1.9591942123935497
sI63
F1.9969073334491036
sI64
F2.0235144870367527
sI65
F1.9964132891877369
sI66
F2.0151563790554863
sI67
F1.9699840451143378
sI68
F1.9862673654983898
sI69
F1.9712502425117975
sI70
F1.9898934135829234
sI71
F1.9636554375711914
sI72
F1.9224051581815238
sI73
F2.00619499038066
sI74
F2.0000155094495318
sI75
F1.9913339698874959
sI76
F2.0009274901425242
sI77
F2.0095105949633778
sI78
F1.991649808058924
sI79
F1.9711639734499979
sI80
F2.0125806618076032
sI81
F1.9473384850221227
sI82
F2.0473637718215918
sI83
F1.9435480252188349
sI84
F2.0134455615605131
sI85
F2.0137611244170968
sI86
F1.949594783081364
sI87
F1.9697612118975583
sa(dp10
I1
F7351.2776814365507
sI2
F786.3498956289028
sI3
F624.97786957896631
sI4
F279.21179726264222
sI5
F172.38251102495357
sI6
F99.585508893871378
sI7
F56.728943444966433
sI8
F25.842443203648294
sI9
F4.239076659353989
sI10
F3.5621256269729074
sI11
F1.9772865167881424
sI12
F2.0091281962864977
sI13
F2.0094870348293696
sI14
F2.0061412450354399
sI15
F2.0314624122965093
sI16
F2.0752455102053196
sI17
F2.0127562016683713
sI18
F2.0383596867538931
sI19
F2.0319624678555455
sI20
F1.9927284561455496
sI21
F2.0339962394275206
sI22
F1.9898635528278916
sI23
F2.0048383625028108
sI24
F2.0123297912948623
sI25
F1.9657306182978962
sI26
F2.0272052295401037
sI27
F1.9977786158927016
sI28
F2.0698273583546793
sI29
F2.0505240941991638
sI30
F2.0485563112085448
sI31
F1.9964687864376933
sI32
F1.9552750158005829
sI33
F1.9693954298463461
sI34
F1.9657811405000254
sI35
F2.0331921790781875
sI36
F2.031181315937487
sI37
F2.023934919908617
sI38
F1.9878739890093438
sI39
F2.0168638862035091
sI40
F1.9544509107859558
sI41
F2.0061864539947298
sI42
F1.9715879209222795
sI43
F2.0224978699712088
sI44
F2.0098234893380242
sI45
F2.0186073212928353
sI46
F2.0080658454303144
sI47
F1.9882861273738197
sI48
F1.9930169062943468
sI49
F2.0421157391964906
sI50
F1.9676366451328757
sI51
F2.0265234920024038
sI52
F1.9820273944218825
sI53
F1.9736278117891206
sI54
F1.9800605890840621
sI55
F2.0411583978898493
sI56
F1.9625156722921966
sI57
F2.0288381401097348
sI58
F1.9866956524688832
sI59
F2.0191928063151061
sI60
F2.0208149993078983
sI61
F1.9877864472089157
sI62
F2.0124326916196056
sI63
F2.0239962510380471
sI64
F1.9876531602625924
sI65
F1.9993574245548391
sI66
F2.0266704463350242
sI67
F2.0150969482699663
sI68
F2.013536866485425
sI69
F2.0101654906406066
sI70
F1.9868958203092468
sI71
F1.9800988166381996
sI72
F2.0167213739600176
sI73
F1.9938679749835768
sI74
F2.0322015857603866
sI75
F2.0125537635344317
sI76
F2.0151279935834827
sI77
F2.0172144067524127
sI78
F1.9841969845049627
sI79
F2.0005436470365825
sI80
F1.9920260658390376
sI81
F1.9908235140974064
sa(dp11
I1
F1093.264841619804
sI2
F336.66227795485042
sI3
F79.163898072662064
sI4
F56.159775289585717
sI5
F49.95601224439482
sI6
F14.185077154267596
sI7
F14.051508204807266
sI8
F1.9864447053882639
sI9
F1.9973504267173214
sI10
F1.9689756628127097
sI11
F1.9565247207552632
sI12
F2.0071539006787917
sI13
F2.0054287761605014
sI14
F2.0341272179989107
sI15
F1.9270650743022502
sI16
F2.0186867790648715
sI17
F1.9968312275630986
sI18
F2.0405713626121424
sI19
F2.0065850644517504
sI20
F2.0232170769929554
sI21
F2.0352385230859396
sI22
F2.0010642677360324
sI23
F1.9979943481653992
sI24
F2.0127386290583837
sI25
F1.9957476497880253
sI26
F1.9900320434198071
sI27
F1.9976439351632349
sI28
F2.041298843134312
sI29
F1.975476714435743
sI30
F2.053502047045161
sI31
F2.0478282472938076
sI32
F1.9991718556483613
sI33
F2.0183259980766337
sI34
F1.9168755832454303
sI35
F2.0005259513724245
sI36
F2.0340765511751653
sI37
F2.0123800614841079
sI38
F2.0055174285561881
sI39
F1.9799114293901741
sI40
F2.0417927722362239
sI41
F2.0368031801529871
sI42
F2.0333767189144876
sI43
F1.9533357598878651
sI44
F2.0222346259908042
sI45
F2.003629821191415
sI46
F2.0007768752896875
sI47
F1.9847119179365
sI48
F2.0205525934618631
sI49
F1.9798630256067176
sI50
F2.025732379968805
sI51
F1.9982903030047421
sI52
F1.9898495605121047
sI53
F1.9745587922121235
sI54
F1.9195986639695894
sI55
F2.0429927039103708
sI56
F1.9442656650472294
sI57
F1.9970577956602411
sI58
F2.0496025042753896
sI59
F1.9519997645490457
sI60
F1.9652396414222464
sI61
F2.0345208894035611
sI62
F1.9988169142142524
sI63
F2.0013321274447287
sI64
F2.0644274687702722
sI65
F2.0752835481814831
sI66
F2.0098635025667488
sI67
F1.9614600552446713
sI68
F2.0170021404166891
sI69
F2.0077544363254121
sI70
F2.0114582235910086
sI71
F2.0405565841142734
sI72
F1.9745207556201243
sI73
F2.0455663036916953
sI74
F1.9645074182748747
sI75
F1.9542499799183881
sI76
F1.9751589722799092
sI77
F1.9580935325470448
sI78
F2.0076023888454286
sI79
F2.0128444001613808
sI80
F2.0040503849415146
sI81
F2.0458182999659273
sI82
F1.9781922788532231
sI83
F2.0281165402506094
sI84
F2.0090478745473002
sI85
F2.0281397390720981
sI86
F2.0292922241440041
sI87
F2.0244232335934091
sI88
F2.0096326664038218
sa.