(lp1
(dp2
I1
I8
sI2
I6
sI3
I6
sI4
I7
sI5
I5
sI6
I5
sI7
I6
sI8
I6
sI9
I7
sI10
I6
sI11
I6
sI12
I6
sI13
I6
sI14
I5
sI15
I6
sI16
I6
sI17
I6
sI18
I5
sI19
I5
sI20
I5
sI21
I7
sI22
I6
sI23
I6
sI24
I6
sI25
I5
sI26
I5
sI27
I5
sI28
I6
sI29
I6
sI30
I6
sI31
I8
sI32
I6
sI33
I5
sI34
I6
sI35
I5
sI36
I5
sI37
I6
sI38
I5
sI39
I5
sI40
I6
sI41
I6
sI42
I5
sI43
I5
sI44
I5
sI45
I5
sI46
I5
sI47
I5
sI48
I5
sI49
I5
sI50
I5
sI51
I7
sI52
I7
sI53
I7
sI54
I7
sI55
I7
sI56
I7
sI57
I7
sI58
I7
sI59
I7
sI60
I8
sI61
I5
sI62
I5
sI63
I6
sI64
I5
sI65
I5
sI66
I5
sI67
I5
sI68
I5
sI69
I5
sI70
I5
sI71
I5
sI72
I6
sI73
I6
sI74
I5
sI75
I6
sI76
I6
sI77
I5
sI78
I5
sI79
I6
sI80
I5
sI81
I5
sI82
I5
sI83
I5
sI84
I5
sI85
I5
sI86
I6
sI87
I6
sI88
I5
sI89
I5
sI90
I5
sI91
I5
sI92
I6
sI93
I6
sI94
I7
sI95
I7
sI96
I7
sI97
I7
sI98
I7
sI99
I7
sI100
I7
sI101
I6
sI102
I6
sI103
I7
sI104
I6
sI105
I6
sI106
I6
sI107
I5
sI108
I5
sI109
I5
sI110
I5
sI111
I5
sI112
I5
sI113
I5
sI114
I5
sI115
I5
sI116
I5
sI117
I2
sI118
I2
sI119
I2
sI120
I2
sI121
I2
sI122
I2
sI123
I2
sI124
I2
sI125
I2
sI126
I2
sI127
I1
sI128
I1
sI129
I1
sI130
I1
sI131
I1
sI132
I1
sI133
I1
sI134
I1
sI135
I1
sI136
I1
sI137
I1
sI138
I1
sI139
I1
sI140
I1
sI141
I1
sI142
I1
sI143
I1
sI144
I1
sI145
I1
sI146
I1
sI147
I1
sI148
I1
sI149
I1
sI150
I1
sI151
I1
sI152
I1
sI153
I1
sI154
I1
sI155
I1
sI156
I1
sI157
I1
sI158
I1
sI159
I1
sI160
I1
sI161
I1
sI162
I1
sI163
I1
sI164
I1
sI165
I1
sI166
I1
sI167
I1
sI168
I1
sI169
I2
sI170
I2
sI171
I2
sI172
I1
sI173
I1
sI174
I1
sI175
I1
sI176
I1
sI177
I1
sI178
I1
sI179
I1
sI180
I1
sI181
I1
sI182
I1
sI183
I1
sI184
I1
sI185
I1
sI186
I1
sI187
I1
sI188
I1
sI189
I1
sI190
I1
sI191
I1
sI192
I1
sI193
I1
sI194
I1
sI195
I1
sI196
I1
sI197
I1
sI198
I1
sI199
I1
sI200
I1
sI201
I1
sI202
I1
sI203
I1
sI204
I1
sI205
I1
sI206
I1
sI207
I1
sI208
I1
sI209
I1
sI210
I1
sI211
I1
sI212
I1
sI213
I1
sI214
I1
sI215
I1
sI216
I1
sI217
I1
sI218
I1
sI219
I1
sI220
I1
sI221
I1
sI222
I1
sI223
I1
sI224
I1
sI225
I1
sI226
I1
sI227
I1
sI228
I1
sI229
I1
sI230
I1
sI231
I1
sI232
I1
sI233
I1
sI234
I1
sI235
I2
sI236
I2
sI237
I2
sI238
I2
sI239
I2
sI240
I2
sI241
I2
sI242
I2
sI243
I2
sI244
I2
sI245
I2
sI246
I2
sI247
I1
sI248
I1
sI249
I1
sI250
I1
sI251
I1
sI252
I1
sI253
I1
sI254
I2
sI255
I2
sI256
I2
sI257
I6
sI258
I7
sI259
I8
sI260
I7
sI261
I9
sI262
I9
sI263
I9
sI264
I5
sI265
I5
sI266
I5
sI267
I7
sI268
I7
sI269
I7
sI270
I6
sI271
I6
sI272
I5
sI273
I1
sI274
I1
sI275
I1
sI276
I1
sI277
I1
sI278
I1
sI279
I1
sI280
I1
sI281
I2
sI282
I2
sI283
I2
sI284
I2
sI285
I2
sI286
I2
sI287
I2
sI288
I2
sI289
I2
sI290
I2
sI291
I2
sI292
I2
sI293
I2
sI294
I2
sI295
I7
sI296
I8
sI297
I7
sI298
I6
sI299
I10
sI300
I9
sI301
I8
sI302
I8
sI303
I8
sI304
I8
sI305
I7
sI306
I5
sI307
I5
sI308
I6
sI309
I5
sI310
I5
sI311
I5
sI312
I5
sI313
I5
sI314
I5
sI315
I5
sI316
I5
sI317
I6
sI318
I5
sI319
I7
sI320
I6
sI321
I6
sI322
I7
sI323
I6
sI324
I6
sI325
I7
sI326
I5
sI327
I5
sI328
I5
sI329
I5
sI330
I5
sI331
I5
sI332
I5
sI333
I5
sI334
I5
sI335
I6
sI336
I6
sI337
I7
sI338
I7
sI339
I7
sI340
I7
sI341
I5
sI342
I5
sI343
I5
sI344
I6
sI345
I6
sI346
I6
sI347
I6
sI348
I6
sI349
I6
sI350
I5
sI351
I6
sI352
I5
sI353
I5
sI354
I7
sI355
I7
sI356
I6
sI357
I8
sI358
I8
sI359
I7
sI360
I7
sI361
I7
sI362
I7
sI363
I7
sI364
I6
sI365
I6
sI366
I5
sI367
I6
sI368
I6
sI369
I6
sI370
I7
sI371
I7
sI372
I7
sI373
I7
sI374
I8
sI375
I6
sI376
I6
sI377
I6
sI378
I5
sI379
I5
sI380
I5
sI381
I5
sI382
I8
sI383
I7
sI384
I8
sI385
I8
sI386
I8
sI387
I8
sI388
I9
sI389
I9
sI390
I9
sI391
I9
sI392
I9
sI393
I9
sI394
I9
sI395
I9
sI396
I8
sI397
I8
sI398
I8
sa(dp3
I1
I4
sI2
I4
sI3
I6
sI4
I6
sI5
I6
sI6
I6
sI7
I6
sI8
I7
sI9
I7
sI10
I5
sI11
I5
sI12
I7
sI13
I5
sI14
I5
sI15
I5
sI16
I5
sI17
I5
sI18
I5
sI19
I5
sI20
I5
sI21
I5
sI22
I5
sI23
I5
sI24
I5
sI25
I5
sI26
I5
sI27
I5
sI28
I5
sI29
I5
sI30
I5
sI31
I6
sI32
I9
sI33
I8
sI34
I6
sI35
I5
sI36
I5
sI37
I6
sI38
I5
sI39
I5
sI40
I5
sI41
I6
sI42
I6
sI43
I5
sI44
I5
sI45
I5
sI46
I5
sI47
I6
sI48
I7
sI49
I7
sI50
I7
sI51
I7
sI52
I8
sI53
I8
sI54
I7
sI55
I7
sI56
I9
sI57
I9
sI58
I9
sI59
I8
sI60
I8
sI61
I8
sI62
I9
sI63
I8
sI64
I11
sI65
I11
sI66
I8
sI67
I8
sI68
I7
sI69
I6
sI70
I5
sI71
I6
sI72
I5
sI73
I5
sI74
I5
sI75
I5
sI76
I5
sI77
I5
sI78
I6
sI79
I6
sI80
I6
sI81
I6
sI82
I6
sI83
I6
sI84
I5
sI85
I6
sI86
I6
sI87
I6
sI88
I6
sI89
I6
sI90
I6
sI91
I6
sI92
I6
sI93
I7
sI94
I7
sI95
I5
sI96
I5
sI97
I5
sI98
I5
sI99
I5
sI100
I5
sI101
I5
sI102
I5
sI103
I5
sI104
I5
sI105
I5
sI106
I5
sI107
I5
sI108
I6
sI109
I6
sI110
I5
sI111
I5
sI112
I5
sI113
I5
sI114
I5
sI115
I5
sI116
I5
sI117
I5
sI118
I5
sI119
I5
sI120
I5
sI121
I5
sI122
I5
sI123
I5
sI124
I5
sI125
I5
sI126
I5
sI127
I2
sI128
I5
sI129
I5
sI130
I5
sI131
I6
sI132
I6
sI133
I6
sI134
I6
sI135
I10
sI136
I6
sI137
I7
sI138
I6
sI139
I6
sI140
I6
sI141
I5
sI142
I7
sI143
I7
sI144
I6
sI145
I7
sI146
I5
sI147
I5
sI148
I5
sI149
I5
sI150
I7
sI151
I7
sI152
I7
sI153
I7
sI154
I7
sI155
I7
sI156
I7
sI157
I8
sI158
I7
sI159
I8
sI160
I8
sI161
I7
sI162
I7
sI163
I8
sI164
I7
sI165
I7
sI166
I8
sI167
I8
sI168
I8
sI169
I8
sI170
I7
sI171
I7
sI172
I6
sI173
I6
sI174
I6
sI175
I6
sI176
I6
sI177
I6
sI178
I6
sI179
I6
sI180
I6
sI181
I5
sI182
I5
sI183
I6
sI184
I5
sI185
I5
sI186
I5
sI187
I5
sI188
I6
sI189
I6
sI190
I7
sI191
I6
sI192
I6
sI193
I7
sI194
I6
sI195
I5
sI196
I6
sI197
I6
sI198
I6
sI199
I5
sI200
I10
sI201
I8
sI202
I9
sI203
I12
sI204
I11
sI205
I13
sI206
I10
sI207
I11
sI208
I11
sI209
I13
sI210
I13
sI211
I13
sI212
I13
sI213
I11
sI214
I10
sI215
I9
sI216
I5
sI217
I8
sI218
I10
sI219
I12
sI220
I14
sI221
I12
sI222
I11
sI223
I11
sI224
I6
sI225
I6
sI226
I6
sI227
I6
sI228
I6
sI229
I5
sI230
I5
sI231
I6
sI232
I6
sI233
I6
sI234
I5
sI235
I5
sI236
I5
sI237
I5
sI238
I5
sI239
I5
sI240
I5
sI241
I5
sI242
I5
sI243
I5
sI244
I5
sI245
I5
sI246
I5
sI247
I5
sI248
I6
sI249
I7
sI250
I7
sI251
I7
sI252
I7
sI253
I5
sI254
I5
sI255
I5
sI256
I5
sI257
I5
sI258
I5
sI259
I5
sI260
I5
sI261
I5
sI262
I7
sI263
I7
sI264
I7
sI265
I6
sI266
I6
sI267
I5
sI268
I5
sI269
I5
sI270
I5
sI271
I5
sI272
I5
sI273
I5
sI274
I5
sI275
I5
sI276
I5
sI277
I5
sI278
I5
sI279
I5
sI280
I5
sI281
I5
sI282
I5
sI283
I5
sI284
I5
sI285
I5
sI286
I5
sI287
I5
sI288
I5
sI289
I5
sI290
I5
sI291
I5
sI292
I5
sI293
I6
sI294
I5
sI295
I5
sI296
I5
sI297
I5
sI298
I5
sI299
I5
sI300
I5
sI301
I5
sI302
I6
sI303
I6
sI304
I6
sI305
I5
sI306
I5
sI307
I5
sI308
I5
sI309
I5
sI310
I8
sI311
I8
sI312
I7
sI313
I6
sI314
I7
sI315
I7
sI316
I7
sI317
I5
sI318
I5
sI319
I5
sI320
I5
sI321
I5
sI322
I5
sI323
I5
sI324
I5
sI325
I5
sI326
I5
sI327
I5
sI328
I5
sI329
I5
sI330
I5
sI331
I5
sI332
I5
sI333
I7
sI334
I7
sI335
I5
sI336
I5
sI337
I5
sI338
I9
sI339
I7
sI340
I8
sI341
I5
sI342
I5
sI343
I5
sI344
I10
sI345
I5
sI346
I5
sI347
I5
sI348
I5
sI349
I5
sI350
I5
sI351
I5
sI352
I5
sI353
I5
sI354
I6
sa(dp4
I1
I2
sI2
I2
sI3
I2
sI4
I2
sI5
I1
sI6
I1
sI7
I1
sI8
I1
sI9
I1
sI10
I1
sI11
I1
sI12
I1
sI13
I1
sI14
I1
sI15
I1
sI16
I2
sI17
I2
sI18
I2
sI19
I2
sI20
I2
sI21
I2
sI22
I5
sI23
I6
sI24
I6
sI25
I6
sI26
I5
sI27
I5
sI28
I5
sI29
I2
sI30
I2
sI31
I2
sI32
I2
sI33
I5
sI34
I5
sI35
I5
sI36
I6
sI37
I7
sI38
I6
sI39
I5
sI40
I5
sI41
I6
sI42
I6
sI43
I5
sI44
I8
sI45
I9
sI46
I6
sI47
I8
sI48
I7
sI49
I9
sI50
I6
sI51
I5
sI52
I5
sI53
I5
sI54
I6
sI55
I6
sI56
I6
sI57
I7
sI58
I5
sI59
I5
sI60
I5
sI61
I6
sI62
I5
sI63
I5
sI64
I5
sI65
I5
sI66
I5
sI67
I5
sI68
I5
sI69
I5
sI70
I5
sI71
I8
sI72
I6
sI73
I5
sI74
I5
sI75
I5
sI76
I5
sI77
I7
sI78
I8
sI79
I5
sI80
I5
sI81
I5
sI82
I5
sI83
I7
sI84
I7
sI85
I6
sI86
I6
sI87
I5
sI88
I6
sI89
I6
sI90
I6
sI91
I6
sI92
I6
sI93
I6
sI94
I6
sI95
I6
sI96
I6
sI97
I6
sI98
I5
sI99
I5
sI100
I5
sI101
I5
sI102
I5
sI103
I5
sI104
I5
sI105
I5
sI106
I6
sI107
I6
sI108
I5
sI109
I5
sI110
I5
sI111
I5
sI112
I6
sI113
I8
sI114
I8
sI115
I8
sI116
I7
sI117
I6
sI118
I6
sI119
I5
sI120
I5
sI121
I5
sI122
I5
sI123
I5
sI124
I5
sI125
I5
sI126
I5
sI127
I6
sI128
I6
sI129
I5
sI130
I7
sI131
I6
sI132
I6
sI133
I7
sI134
I5
sI135
I5
sI136
I6
sI137
I6
sI138
I5
sI139
I5
sI140
I5
sI141
I5
sI142
I5
sI143
I6
sI144
I6
sI145
I7
sI146
I7
sI147
I5
sI148
I5
sI149
I5
sI150
I8
sI151
I8
sI152
I7
sI153
I8
sI154
I8
sI155
I9
sI156
I9
sI157
I6
sI158
I5
sI159
I6
sI160
I6
sI161
I5
sI162
I6
sI163
I6
sI164
I6
sI165
I6
sI166
I8
sI167
I10
sI168
I7
sI169
I5
sI170
I5
sI171
I5
sI172
I5
sI173
I5
sI174
I5
sI175
I6
sI176
I6
sI177
I6
sI178
I6
sI179
I6
sI180
I6
sI181
I6
sI182
I6
sI183
I6
sI184
I6
sI185
I7
sI186
I5
sI187
I5
sI188
I5
sI189
I5
sI190
I5
sI191
I5
sI192
I6
sI193
I6
sI194
I6
sI195
I6
sI196
I6
sI197
I6
sI198
I6
sI199
I6
sI200
I6
sI201
I9
sI202
I10
sI203
I7
sI204
I5
sI205
I5
sI206
I5
sI207
I6
sI208
I6
sI209
I6
sI210
I6
sI211
I6
sI212
I5
sI213
I7
sI214
I7
sI215
I6
sI216
I6
sI217
I5
sI218
I5
sI219
I7
sI220
I6
sI221
I6
sI222
I6
sI223
I7
sI224
I8
sI225
I5
sI226
I5
sI227
I5
sI228
I6
sI229
I6
sI230
I6
sI231
I6
sI232
I6
sI233
I6
sI234
I6
sI235
I6
sI236
I8
sI237
I6
sI238
I5
sI239
I5
sI240
I7
sI241
I6
sI242
I5
sI243
I5
sI244
I5
sI245
I7
sI246
I7
sI247
I2
sI248
I2
sI249
I2
sI250
I7
sI251
I5
sI252
I5
sI253
I5
sI254
I7
sI255
I8
sI256
I9
sI257
I9
sI258
I9
sI259
I9
sI260
I7
sI261
I7
sI262
I7
sI263
I5
sI264
I5
sI265
I7
sI266
I8
sI267
I10
sI268
I8
sI269
I8
sI270
I8
sI271
I9
sI272
I9
sI273
I8
sI274
I9
sI275
I7
sI276
I8
sI277
I6
sI278
I8
sI279
I8
sI280
I11
sI281
I8
sI282
I11
sI283
I7
sI284
I6
sI285
I8
sI286
I7
sI287
I7
sI288
I8
sI289
I7
sI290
I7
sI291
I7
sI292
I7
sI293
I5
sI294
I6
sI295
I6
sI296
I7
sI297
I5
sI298
I6
sI299
I7
sI300
I6
sI301
I7
sI302
I5
sI303
I5
sI304
I6
sI305
I6
sI306
I6
sI307
I6
sI308
I6
sI309
I5
sI310
I5
sI311
I6
sI312
I5
sI313
I6
sI314
I5
sI315
I5
sI316
I6
sI317
I6
sI318
I6
sI319
I5
sI320
I7
sI321
I7
sI322
I8
sI323
I5
sI324
I6
sI325
I6
sI326
I1
sI327
I11
sI328
I6
sI329
I6
sI330
I6
sI331
I5
sI332
I6
sI333
I6
sI334
I6
sI335
I6
sI336
I6
sI337
I7
sI338
I7
sI339
I7
sI340
I7
sI341
I5
sI342
I2
sI343
I2
sI344
I2
sI345
I2
sI346
I2
sI347
I2
sI348
I2
sI349
I2
sI350
I2
sI351
I9
sI352
I9
sI353
I8
sI354
I7
sI355
I7
sI356
I7
sI357
I6
sI358
I6
sI359
I5
sI360
I7
sI361
I10
sI362
I9
sI363
I9
sI364
I6
sI365
I6
sI366
I8
sI367
I6
sI368
I6
sI369
I6
sI370
I7
sI371
I5
sI372
I5
sI373
I6
sI374
I5
sI375
I5
sI376
I6
sI377
I6
sI378
I5
sI379
I5
sI380
I5
sI381
I5
sI382
I5
sI383
I5
sI384
I6
sI385
I8
sI386
I5
sI387
I5
sI388
I5
sI389
I6
sI390
I6
sI391
I6
sI392
I6
sI393
I6
sI394
I5
sI395
I7
sI396
I7
sI397
I7
sI398
I5
sI399
I5
sI400
I7
sI401
I6
sI402
I7
sI403
I5
sI404
I6
sI405
I7
sI406
I8
sI407
I9
sI408
I9
sI409
I10
sI410
I11
sI411
I9
sI412
I8
sI413
I7
sI414
I7
sI415
I5
sI416
I5
sI417
I5
sI418
I6
sI419
I5
sI420
I8
sI421
I8
sI422
I8
sI423
I8
sI424
I8
sI425
I6
sI426
I6
sI427
I6
sI428
I5
sI429
I6
sI430
I6
sI431
I7
sI432
I7
sI433
I6
sI434
I6
sI435
I6
sI436
I5
sI437
I5
sI438
I5
sI439
I5
sI440
I5
sI441
I5
sI442
I6
sI443
I5
sI444
I6
sI445
I7
sI446
I7
sI447
I5
sI448
I5
sI449
I5
sI450
I5
sI451
I5
sI452
I5
sI453
I5
sI454
I5
sI455
I5
sI456
I5
sI457
I5
sI458
I7
sI459
I6
sI460
I7
sI461
I5
sI462
I7
sI463
I5
sI464
I5
sI465
I5
sI466
I7
sI467
I7
sI468
I6
sI469
I5
sI470
I5
sI471
I6
sI472
I6
sI473
I7
sI474
I6
sI475
I7
sI476
I7
sI477
I7
sI478
I7
sI479
I9
sI480
I9
sI481
I8
sI482
I8
sI483
I6
sI484
I6
sI485
I5
sI486
I5
sI487
I7
sI488
I7
sI489
I7
sI490
I7
sI491
I7
sI492
I7
sI493
I8
sI494
I8
sI495
I8
sI496
I6
sI497
I6
sI498
I6
sI499
I6
sI500
I6
sI501
I6
sI502
I6
sI503
I6
sI504
I8
sI505
I8
sI506
I7
sI507
I6
sI508
I8
sI509
I8
sI510
I7
sI511
I7
sI512
I7
sI513
I7
sI514
I7
sI515
I7
sI516
I7
sI517
I7
sI518
I7
sI519
I7
sI520
I7
sI521
I7
sI522
I7
sI523
I7
sI524
I7
sI525
I5
sI526
I6
sI527
I5
sI528
I5
sI529
I5
sa(dp5
I1
I1
sI2
I1
sI3
I1
sI4
I1
sI5
I1
sI6
I1
sI7
I1
sI8
I1
sI9
I1
sI10
I1
sI11
I1
sI12
I1
sI13
I1
sI14
I2
sI15
I2
sI16
I2
sI17
I2
sI18
I2
sI19
I2
sI20
I2
sI21
I2
sI22
I2
sI23
I1
sI24
I1
sI25
I1
sI26
I1
sI27
I1
sI28
I1
sI29
I0
sI30
I1
sI31
I2
sI32
I2
sI33
I1
sI34
I1
sI35
I1
sI36
I1
sI37
I1
sI38
I0
sI39
I0
sI40
I0
sI41
I0
sI42
I0
sI43
I0
sI44
I0
sI45
I0
sI46
I0
sI47
I0
sI48
I0
sI49
I0
sI50
I0
sI51
I0
sI52
I0
sI53
I0
sI54
I9
sI55
I8
sI56
I8
sI57
I5
sI58
I7
sI59
I7
sI60
I7
sI61
I7
sI62
I8
sI63
I7
sI64
I7
sI65
I8
sI66
I8
sI67
I6
sI68
I7
sI69
I6
sI70
I6
sI71
I6
sI72
I5
sI73
I5
sI74
I6
sI75
I7
sI76
I5
sI77
I5
sI78
I5
sI79
I5
sI80
I7
sI81
I6
sI82
I5
sI83
I5
sI84
I5
sI85
I5
sI86
I5
sI87
I6
sI88
I5
sI89
I5
sI90
I5
sI91
I5
sI92
I5
sI93
I5
sI94
I2
sI95
I2
sI96
I2
sI97
I1
sI98
I1
sI99
I5
sI100
I6
sI101
I7
sI102
I6
sI103
I6
sI104
I6
sI105
I6
sI106
I7
sI107
I5
sI108
I6
sI109
I6
sI110
I5
sI111
I6
sI112
I5
sI113
I6
sI114
I5
sI115
I7
sI116
I9
sI117
I9
sI118
I9
sI119
I8
sI120
I8
sI121
I8
sI122
I7
sI123
I7
sI124
I7
sI125
I7
sI126
I7
sI127
I7
sI128
I6
sI129
I6
sI130
I10
sI131
I6
sI132
I7
sI133
I7
sI134
I6
sI135
I5
sI136
I6
sI137
I6
sI138
I6
sI139
I5
sI140
I5
sI141
I5
sI142
I5
sI143
I5
sI144
I5
sI145
I5
sI146
I7
sI147
I6
sI148
I6
sI149
I6
sI150
I6
sI151
I5
sI152
I6
sI153
I6
sI154
I5
sI155
I5
sI156
I5
sI157
I5
sI158
I6
sI159
I6
sI160
I6
sI161
I6
sI162
I6
sI163
I5
sI164
I5
sI165
I5
sI166
I5
sI167
I5
sI168
I5
sI169
I5
sI170
I5
sI171
I7
sI172
I5
sI173
I6
sI174
I5
sI175
I5
sI176
I6
sI177
I6
sI178
I6
sI179
I5
sI180
I5
sI181
I5
sI182
I6
sI183
I5
sI184
I5
sI185
I6
sI186
I6
sI187
I6
sI188
I6
sI189
I7
sI190
I7
sI191
I7
sI192
I7
sI193
I7
sI194
I7
sI195
I11
sI196
I11
sI197
I9
sI198
I5
sI199
I6
sI200
I10
sI201
I10
sI202
I9
sI203
I5
sI204
I5
sI205
I5
sI206
I5
sI207
I5
sI208
I5
sI209
I5
sI210
I7
sI211
I6
sI212
I6
sI213
I6
sI214
I5
sI215
I7
sI216
I8
sI217
I9
sI218
I8
sI219
I8
sI220
I8
sI221
I6
sI222
I8
sI223
I8
sI224
I8
sI225
I10
sI226
I7
sI227
I5
sI228
I6
sI229
I5
sI230
I7
sI231
I7
sI232
I7
sI233
I8
sI234
I7
sI235
I7
sI236
I8
sI237
I8
sI238
I8
sI239
I8
sI240
I8
sI241
I8
sI242
I8
sI243
I8
sI244
I7
sI245
I7
sI246
I7
sI247
I7
sI248
I7
sI249
I8
sI250
I8
sI251
I7
sI252
I6
sI253
I7
sI254
I7
sI255
I7
sI256
I6
sI257
I6
sI258
I5
sI259
I6
sI260
I6
sI261
I5
sI262
I5
sI263
I7
sI264
I8
sI265
I8
sI266
I8
sI267
I7
sI268
I5
sI269
I5
sI270
I5
sI271
I6
sI272
I6
sI273
I7
sI274
I7
sI275
I6
sI276
I6
sI277
I6
sI278
I6
sI279
I5
sI280
I5
sI281
I5
sI282
I5
sI283
I5
sI284
I5
sI285
I5
sI286
I5
sI287
I6
sI288
I6
sI289
I5
sI290
I5
sI291
I5
sI292
I6
sI293
I5
sI294
I6
sI295
I5
sI296
I6
sI297
I5
sI298
I5
sI299
I5
sI300
I5
sI301
I5
sI302
I5
sI303
I9
sI304
I9
sI305
I7
sI306
I7
sI307
I7
sI308
I7
sI309
I7
sI310
I6
sI311
I8
sI312
I7
sI313
I7
sI314
I8
sI315
I8
sI316
I5
sI317
I6
sI318
I6
sI319
I6
sI320
I5
sI321
I6
sI322
I6
sI323
I6
sI324
I6
sI325
I5
sI326
I5
sI327
I5
sI328
I5
sI329
I5
sI330
I5
sI331
I5
sI332
I5
sI333
I10
sI334
I5
sI335
I5
sI336
I5
sI337
I5
sI338
I7
sI339
I7
sI340
I7
sI341
I2
sI342
I2
sI343
I2
sI344
I1
sI345
I1
sI346
I1
sI347
I1
sI348
I1
sI349
I1
sI350
I1
sI351
I1
sI352
I1
sI353
I1
sI354
I1
sI355
I1
sI356
I1
sI357
I1
sI358
I0
sI359
I0
sI360
I0
sI361
I0
sI362
I0
sI363
I0
sI364
I1
sI365
I1
sI366
I1
sI367
I1
sI368
I1
sI369
I2
sI370
I2
sI371
I2
sI372
I2
sI373
I2
sI374
I1
sI375
I1
sI376
I1
sI377
I1
sI378
I1
sI379
I1
sI380
I1
sI381
I1
sI382
I1
sI383
I1
sI384
I1
sI385
I1
sI386
I1
sI387
I1
sI388
I1
sI389
I1
sI390
I1
sI391
I1
sI392
I1
sI393
I1
sI394
I1
sI395
I1
sI396
I1
sI397
I0
sI398
I0
sI399
I0
sI400
I0
sI401
I0
sI402
I0
sI403
I0
sI404
I0
sI405
I0
sI406
I0
sI407
I0
sI408
I0
sI409
I0
sI410
I0
sI411
I0
sI412
I0
sI413
I0
sI414
I0
sI415
I0
sI416
I0
sI417
I0
sI418
I0
sI419
I0
sI420
I0
sI421
I0
sI422
I0
sI423
I0
sI424
I0
sI425
I0
sI426
I0
sI427
I0
sI428
I0
sI429
I0
sI430
I0
sI431
I0
sI432
I0
sI433
I0
sI434
I0
sI435
I0
sI436
I0
sI437
I0
sI438
I0
sI439
I0
sI440
I0
sI441
I0
sI442
I0
sI443
I0
sI444
I0
sI445
I0
sI446
I0
sI447
I0
sI448
I0
sI449
I0
sI450
I0
sI451
I0
sI452
I0
sI453
I0
sI454
I0
sI455
I0
sI456
I1
sI457
I1
sI458
I1
sI459
I1
sI460
I1
sI461
I1
sI462
I1
sI463
I1
sI464
I1
sI465
I1
sI466
I1
sI467
I1
sI468
I1
sI469
I1
sI470
I1
sI471
I1
sI472
I1
sI473
I1
sI474
I1
sI475
I1
sI476
I1
sI477
I1
sI478
I1
sI479
I1
sI480
I1
sI481
I1
sI482
I1
sI483
I1
sI484
I1
sI485
I1
sI486
I1
sI487
I1
sI488
I1
sI489
I1
sI490
I1
sI491
I1
sI492
I1
sI493
I1
sI494
I2
sI495
I2
sI496
I2
sI497
I2
sI498
I2
sI499
I2
sI500
I1
sI501
I1
sI502
I1
sI503
I1
sI504
I1
sI505
I1
sI506
I1
sI507
I1
sI508
I1
sI509
I1
sI510
I1
sI511
I1
sI512
I1
sI513
I1
sI514
I1
sI515
I1
sI516
I1
sI517
I1
sI518
I1
sI519
I1
sI520
I1
sI521
I1
sI522
I1
sI523
I1
sI524
I1
sI525
I1
sI526
I1
sI527
I1
sI528
I1
sI529
I1
sI530
I1
sI531
I1
sI532
I1
sI533
I1
sI534
I1
sI535
I1
sI536
I1
sI537
I2
sI538
I9
sI539
I9
sI540
I7
sI541
I5
sI542
I8
sI543
I5
sI544
I5
sI545
I5
sI546
I5
sI547
I5
sI548
I5
sI549
I5
sI550
I5
sI551
I5
sI552
I5
sI553
I5
sI554
I6
sI555
I7
sI556
I7
sI557
I7
sI558
I7
sI559
I6
sI560
I5
sI561
I6
sI562
I6
sI563
I6
sI564
I5
sI565
I6
sI566
I5
sI567
I5
sI568
I5
sI569
I5
sI570
I5
sI571
I6
sI572
I7
sI573
I7
sI574
I6
sI575
I5
sI576
I5
sI577
I6
sI578
I6
sI579
I6
sI580
I6
sI581
I6
sI582
I6
sI583
I6
sI584
I6
sI585
I6
sI586
I7
sI587
I5
sI588
I6
sI589
I5
sI590
I5
sI591
I1
sI592
I1
sI593
I1
sI594
I1
sI595
I1
sI596
I1
sI597
I1
sI598
I1
sI599
I1
sI600
I1
sI601
I1
sI602
I1
sI603
I1
sI604
I1
sI605
I1
sI606
I1
sI607
I1
sI608
I1
sI609
I1
sI610
I1
sI611
I1
sI612
I1
sI613
I1
sI614
I1
sI615
I1
sI616
I1
sI617
I1
sI618
I0
sI619
I1
sI620
I1
sI621
I1
sI622
I1
sI623
I1
sI624
I1
sI625
I1
sI626
I1
sI627
I1
sI628
I1
sI629
I1
sI630
I1
sI631
I1
sI632
I0
sI633
I0
sI634
I0
sI635
I1
sI636
I1
sI637
I1
sI638
I2
sI639
I1
sI640
I0
sI641
I1
sI642
I1
sI643
I1
sI644
I1
sI645
I1
sI646
I1
sI647
I1
sI648
I1
sI649
I1
sI650
I1
sI651
I1
sI652
I1
sI653
I1
sI654
I1
sI655
I1
sI656
I1
sI657
I1
sI658
I5
sI659
I12
sI660
I10
sI661
I11
sI662
I10
sI663
I10
sI664
I10
sI665
I10
sI666
I7
sI667
I8
sI668
I7
sI669
I7
sI670
I7
sI671
I7
sI672
I6
sI673
I6
sI674
I5
sI675
I5
sI676
I8
sI677
I10
sI678
I8
sI679
I8
sI680
I7
sI681
I8
sI682
I7
sI683
I7
sI684
I5
sI685
I5
sI686
I5
sI687
I5
sI688
I5
sI689
I6
sI690
I6
sI691
I6
sI692
I6
sI693
I6
sI694
I6
sI695
I6
sI696
I6
sI697
I6
sI698
I6
sI699
I6
sI700
I6
sI701
I7
sI702
I5
sI703
I5
sI704
I5
sI705
I5
sI706
I5
sI707
I6
sI708
I6
sI709
I6
sI710
I6
sI711
I7
sI712
I6
sI713
I6
sI714
I5
sI715
I5
sI716
I5
sI717
I6
sI718
I6
sI719
I5
sI720
I5
sI721
I5
sI722
I6
sI723
I6
sI724
I6
sI725
I5
sI726
I5
sI727
I5
sI728
I6
sI729
I6
sI730
I5
sI731
I5
sI732
I5
sI733
I5
sI734
I6
sI735
I5
sI736
I5
sI737
I8
sI738
I8
sI739
I8
sI740
I9
sI741
I9
sI742
I9
sI743
I10
sI744
I6
sI745
I5
sI746
I5
sI747
I8
sI748
I9
sI749
I9
sI750
I8
sI751
I8
sI752
I8
sI753
I8
sI754
I8
sI755
I7
sI756
I8
sI757
I8
sI758
I8
sI759
I8
sI760
I7
sI761
I9
sI762
I7
sI763
I6
sI764
I8
sI765
I5
sI766
I8
sI767
I8
sI768
I8
sI769
I7
sI770
I7
sI771
I1
sI772
I8
sI773
I7
sI774
I7
sI775
I9
sI776
I9
sI777
I5
sI778
I5
sI779
I5
sI780
I6
sI781
I7
sI782
I7
sI783
I10
sI784
I10
sI785
I9
sI786
I10
sI787
I10
sI788
I8
sI789
I8
sI790
I8
sI791
I8
sI792
I8
sI793
I8
sI794
I10
sI795
I11
sI796
I11
sI797
I11
sI798
I11
sI799
I11
sI800
I12
sI801
I12
sI802
I9
sI803
I9
sI804
I9
sI805
I8
sI806
I5
sI807
I5
sI808
I6
sI809
I6
sI810
I5
sI811
I5
sI812
I5
sI813
I5
sI814
I5
sI815
I5
sI816
I5
sI817
I5
sI818
I5
sI819
I6
sI820
I5
sI821
I5
sI822
I5
sI823
I6
sI824
I6
sI825
I6
sI826
I6
sI827
I6
sI828
I7
sI829
I7
sI830
I7
sI831
I6
sI832
I6
sI833
I6
sI834
I6
sI835
I5
sI836
I5
sI837
I8
sI838
I8
sI839
I8
sI840
I6
sI841
I6
sI842
I6
sI843
I6
sI844
I6
sI845
I5
sI846
I6
sI847
I7
sI848
I7
sI849
I7
sI850
I7
sI851
I7
sI852
I7
sI853
I7
sI854
I5
sI855
I6
sI856
I7
sI857
I7
sI858
I7
sI859
I6
sI860
I5
sI861
I5
sI862
I5
sI863
I5
sI864
I5
sI865
I5
sI866
I5
sI867
I5
sI868
I5
sI869
I5
sI870
I5
sI871
I6
sI872
I7
sI873
I7
sI874
I7
sI875
I5
sI876
I6
sI877
I7
sI878
I5
sI879
I6
sI880
I6
sI881
I6
sI882
I5
sI883
I6
sI884
I6
sI885
I5
sI886
I5
sI887
I6
sI888
I5
sI889
I5
sI890
I5
sI891
I5
sI892
I5
sI893
I5
sI894
I5
sI895
I5
sI896
I8
sI897
I8
sI898
I6
sI899
I5
sI900
I6
sI901
I5
sI902
I5
sI903
I7
sI904
I7
sI905
I7
sI906
I6
sI907
I8
sI908
I8
sI909
I6
sI910
I6
sI911
I7
sI912
I7
sI913
I9
sI914
I8
sI915
I8
sI916
I8
sI917
I8
sI918
I5
sI919
I5
sI920
I5
sI921
I5
sI922
I5
sI923
I5
sI924
I5
sI925
I5
sI926
I5
sI927
I5
sI928
I5
sI929
I5
sI930
I5
sI931
I5
sI932
I5
sI933
I5
sI934
I5
sI935
I5
sI936
I6
sI937
I6
sI938
I6
sI939
I7
sI940
I7
sI941
I5
sI942
I5
sI943
I5
sI944
I5
sI945
I5
sI946
I5
sI947
I5
sI948
I5
sI949
I7
sI950
I6
sI951
I6
sI952
I6
sI953
I6
sI954
I5
sI955
I5
sI956
I6
sI957
I7
sI958
I5
sI959
I7
sI960
I6
sI961
I6
sI962
I6
sI963
I6
sa(dp6
I1
I2
sI2
I2
sI3
I2
sI4
I2
sI5
I2
sI6
I1
sI7
I1
sI8
I1
sI9
I1
sI10
I1
sI11
I1
sI12
I1
sI13
I1
sI14
I1
sI15
I1
sI16
I1
sI17
I1
sI18
I1
sI19
I1
sI20
I1
sI21
I1
sI22
I1
sI23
I1
sI24
I1
sI25
I1
sI26
I1
sI27
I1
sI28
I1
sI29
I1
sI30
I1
sI31
I1
sI32
I1
sI33
I0
sI34
I0
sI35
I0
sI36
I0
sI37
I0
sI38
I0
sI39
I1
sI40
I1
sI41
I1
sI42
I1
sI43
I1
sI44
I1
sI45
I1
sI46
I1
sI47
I1
sI48
I0
sI49
I0
sI50
I0
sI51
I0
sI52
I0
sI53
I0
sI54
I0
sI55
I0
sI56
I0
sI57
I0
sI58
I0
sI59
I0
sI60
I0
sI61
I0
sI62
I0
sI63
I0
sI64
I0
sI65
I1
sI66
I1
sI67
I1
sI68
I5
sI69
I5
sI70
I5
sI71
I5
sI72
I5
sI73
I5
sI74
I5
sI75
I5
sI76
I5
sI77
I5
sI78
I5
sI79
I5
sI80
I5
sI81
I5
sI82
I5
sI83
I5
sI84
I5
sI85
I5
sI86
I5
sI87
I5
sI88
I5
sI89
I5
sI90
I5
sI91
I5
sI92
I5
sI93
I7
sI94
I7
sI95
I9
sI96
I9
sI97
I9
sI98
I9
sI99
I8
sI100
I8
sI101
I8
sI102
I9
sI103
I7
sI104
I7
sI105
I7
sI106
I7
sI107
I5
sI108
I5
sI109
I5
sI110
I2
sI111
I2
sI112
I2
sI113
I2
sI114
I2
sI115
I2
sI116
I2
sI117
I1
sI118
I2
sI119
I2
sI120
I2
sI121
I5
sI122
I5
sI123
I5
sI124
I5
sI125
I5
sI126
I5
sI127
I5
sI128
I5
sI129
I6
sI130
I6
sI131
I6
sI132
I5
sI133
I5
sI134
I5
sI135
I5
sI136
I5
sI137
I5
sI138
I5
sI139
I5
sI140
I5
sI141
I5
sI142
I6
sI143
I5
sI144
I6
sI145
I7
sI146
I9
sI147
I8
sI148
I7
sI149
I8
sI150
I8
sI151
I8
sI152
I6
sI153
I7
sI154
I8
sI155
I7
sI156
I7
sI157
I5
sI158
I6
sI159
I6
sI160
I5
sI161
I5
sI162
I7
sI163
I6
sI164
I5
sI165
I5
sI166
I6
sI167
I8
sI168
I9
sI169
I7
sI170
I8
sI171
I8
sI172
I8
sI173
I8
sI174
I8
sI175
I8
sI176
I8
sI177
I7
sI178
I7
sI179
I7
sI180
I5
sI181
I8
sI182
I8
sI183
I5
sI184
I7
sI185
I6
sI186
I8
sI187
I5
sI188
I6
sI189
I6
sI190
I8
sI191
I9
sI192
I8
sI193
I6
sI194
I6
sI195
I7
sI196
I7
sI197
I8
sI198
I7
sI199
I7
sI200
I7
sI201
I5
sI202
I1
sI203
I1
sI204
I1
sI205
I1
sI206
I1
sI207
I1
sI208
I1
sI209
I1
sI210
I1
sI211
I1
sI212
I1
sI213
I1
sI214
I1
sI215
I1
sI216
I1
sI217
I1
sI218
I1
sI219
I1
sI220
I1
sI221
I1
sI222
I1
sI223
I1
sI224
I1
sI225
I1
sI226
I1
sI227
I1
sI228
I1
sI229
I1
sI230
I1
sI231
I1
sI232
I2
sI233
I2
sI234
I2
sI235
I2
sI236
I2
sI237
I1
sI238
I1
sI239
I2
sI240
I2
sI241
I2
sI242
I2
sI243
I2
sI244
I2
sI245
I2
sI246
I2
sI247
I2
sI248
I2
sI249
I2
sI250
I6
sI251
I8
sI252
I8
sI253
I8
sI254
I8
sI255
I6
sI256
I6
sI257
I6
sI258
I6
sI259
I6
sI260
I5
sI261
I6
sI262
I5
sI263
I5
sI264
I5
sI265
I5
sI266
I5
sI267
I6
sI268
I6
sI269
I6
sI270
I6
sI271
I6
sI272
I6
sI273
I5
sI274
I6
sI275
I7
sI276
I8
sI277
I8
sI278
I8
sI279
I7
sI280
I7
sI281
I7
sI282
I7
sI283
I6
sI284
I6
sI285
I6
sI286
I6
sI287
I6
sI288
I6
sI289
I6
sI290
I6
sI291
I6
sI292
I6
sI293
I6
sI294
I6
sI295
I6
sI296
I5
sI297
I5
sI298
I5
sI299
I6
sI300
I6
sI301
I6
sI302
I6
sI303
I6
sI304
I6
sI305
I5
sI306
I5
sI307
I5
sI308
I5
sI309
I7
sI310
I5
sI311
I5
sI312
I6
sI313
I6
sI314
I6
sI315
I5
sI316
I5
sI317
I6
sI318
I5
sI319
I6
sI320
I5
sI321
I8
sI322
I7
sI323
I7
sI324
I5
sI325
I5
sI326
I6
sI327
I5
sI328
I6
sI329
I5
sI330
I6
sI331
I6
sI332
I6
sI333
I6
sI334
I5
sI335
I6
sI336
I6
sI337
I7
sI338
I6
sI339
I6
sI340
I8
sI341
I9
sI342
I6
sI343
I6
sI344
I7
sI345
I7
sI346
I5
sI347
I5
sI348
I5
sI349
I5
sI350
I5
sI351
I7
sI352
I5
sI353
I5
sI354
I5
sI355
I5
sI356
I6
sI357
I6
sI358
I5
sI359
I5
sI360
I5
sI361
I7
sI362
I7
sI363
I6
sI364
I6
sI365
I6
sI366
I6
sI367
I7
sI368
I7
sI369
I8
sI370
I8
sI371
I6
sI372
I6
sI373
I6
sI374
I6
sI375
I7
sI376
I7
sI377
I7
sI378
I6
sI379
I6
sI380
I6
sI381
I5
sI382
I5
sI383
I5
sI384
I5
sI385
I5
sI386
I6
sI387
I8
sI388
I8
sI389
I7
sI390
I7
sI391
I8
sI392
I7
sI393
I6
sI394
I6
sI395
I6
sI396
I6
sI397
I6
sI398
I6
sI399
I6
sI400
I6
sI401
I5
sI402
I6
sI403
I6
sI404
I6
sI405
I7
sI406
I7
sI407
I7
sI408
I5
sI409
I5
sI410
I5
sI411
I5
sI412
I5
sI413
I5
sI414
I5
sI415
I5
sI416
I5
sI417
I7
sI418
I9
sI419
I5
sI420
I5
sI421
I5
sI422
I1
sI423
I1
sI424
I1
sI425
I1
sI426
I1
sI427
I1
sI428
I1
sI429
I2
sI430
I2
sI431
I2
sI432
I2
sI433
I2
sI434
I2
sI435
I2
sI436
I1
sI437
I2
sI438
I2
sI439
I1
sI440
I2
sI441
I2
sI442
I2
sI443
I2
sI444
I6
sI445
I6
sI446
I5
sI447
I5
sI448
I5
sI449
I7
sI450
I7
sI451
I6
sI452
I6
sI453
I6
sI454
I8
sI455
I7
sI456
I7
sI457
I7
sI458
I7
sI459
I6
sI460
I8
sI461
I8
sI462
I8
sI463
I8
sI464
I7
sI465
I7
sI466
I7
sI467
I6
sI468
I6
sI469
I6
sI470
I6
sI471
I6
sI472
I5
sI473
I5
sI474
I6
sI475
I6
sI476
I6
sI477
I7
sI478
I7
sI479
I7
sI480
I7
sI481
I7
sI482
I7
sI483
I9
sI484
I8
sI485
I6
sI486
I6
sI487
I6
sI488
I5
sI489
I7
sI490
I5
sI491
I6
sI492
I8
sI493
I8
sI494
I5
sI495
I6
sI496
I5
sI497
I5
sI498
I6
sI499
I6
sI500
I5
sI501
I7
sI502
I6
sI503
I7
sI504
I7
sI505
I6
sI506
I6
sI507
I6
sI508
I6
sI509
I6
sI510
I6
sI511
I6
sI512
I6
sI513
I6
sI514
I5
sI515
I5
sI516
I5
sI517
I5
sI518
I6
sI519
I5
sI520
I5
sI521
I5
sI522
I5
sI523
I5
sI524
I8
sI525
I6
sI526
I5
sI527
I5
sI528
I5
sI529
I5
sI530
I5
sI531
I5
sI532
I5
sI533
I5
sI534
I5
sI535
I5
sI536
I5
sI537
I5
sI538
I6
sI539
I6
sI540
I8
sI541
I6
sI542
I6
sI543
I7
sI544
I7
sI545
I7
sI546
I7
sI547
I6
sI548
I6
sI549
I6
sI550
I6
sI551
I6
sI552
I6
sI553
I6
sI554
I7
sI555
I7
sI556
I7
sI557
I7
sI558
I7
sI559
I8
sI560
I7
sI561
I8
sI562
I8
sI563
I8
sI564
I8
sI565
I8
sI566
I8
sI567
I6
sI568
I7
sI569
I6
sI570
I7
sI571
I7
sI572
I7
sI573
I7
sI574
I7
sI575
I7
sI576
I8
sI577
I8
sI578
I8
sI579
I7
sI580
I8
sI581
I7
sI582
I7
sI583
I5
sI584
I6
sI585
I6
sI586
I5
sI587
I5
sI588
I5
sI589
I5
sI590
I5
sI591
I5
sI592
I5
sI593
I5
sI594
I5
sI595
I5
sI596
I6
sI597
I7
sI598
I6
sI599
I6
sI600
I6
sI601
I6
sI602
I5
sI603
I5
sI604
I5
sI605
I5
sI606
I5
sI607
I5
sI608
I5
sI609
I6
sI610
I5
sI611
I6
sI612
I6
sI613
I6
sI614
I6
sI615
I7
sI616
I8
sI617
I8
sI618
I8
sI619
I8
sI620
I8
sI621
I8
sI622
I9
sI623
I9
sI624
I9
sI625
I9
sI626
I9
sI627
I9
sI628
I6
sI629
I6
sI630
I6
sI631
I6
sI632
I6
sI633
I7
sI634
I7
sI635
I7
sI636
I7
sI637
I7
sI638
I5
sI639
I5
sI640
I5
sI641
I5
sI642
I5
sI643
I5
sI644
I5
sI645
I5
sI646
I5
sI647
I5
sI648
I5
sI649
I5
sI650
I5
sI651
I5
sI652
I5
sI653
I5
sI654
I5
sI655
I5
sI656
I5
sI657
I5
sI658
I5
sI659
I5
sI660
I5
sI661
I5
sI662
I5
sI663
I5
sI664
I5
sI665
I5
sI666
I5
sI667
I6
sI668
I5
sI669
I5
sI670
I5
sI671
I6
sI672
I5
sI673
I8
sI674
I5
sI675
I7
sI676
I8
sI677
I5
sI678
I5
sI679
I5
sI680
I5
sI681
I5
sI682
I6
sI683
I7
sI684
I6
sI685
I7
sI686
I7
sI687
I7
sI688
I7
sI689
I9
sI690
I6
sI691
I5
sI692
I5
sI693
I5
sI694
I5
sI695
I5
sI696
I5
sI697
I5
sI698
I6
sI699
I6
sI700
I6
sI701
I6
sI702
I6
sI703
I6
sI704
I6
sI705
I6
sI706
I7
sI707
I6
sI708
I5
sI709
I5
sI710
I6
sI711
I6
sI712
I6
sI713
I10
sI714
I10
sI715
I10
sI716
I9
sI717
I5
sI718
I5
sI719
I5
sI720
I5
sI721
I6
sI722
I6
sI723
I6
sI724
I5
sI725
I6
sI726
I7
sI727
I6
sI728
I6
sI729
I6
sI730
I6
sI731
I5
sI732
I5
sI733
I5
sI734
I5
sI735
I5
sI736
I5
sI737
I5
sI738
I5
sI739
I5
sI740
I5
sI741
I5
sI742
I5
sI743
I5
sI744
I5
sI745
I5
sI746
I5
sI747
I5
sI748
I5
sI749
I5
sI750
I5
sI751
I5
sI752
I5
sI753
I5
sI754
I5
sI755
I5
sI756
I5
sI757
I5
sI758
I5
sI759
I5
sI760
I5
sI761
I5
sI762
I5
sI763
I5
sI764
I5
sI765
I5
sI766
I5
sI767
I5
sI768
I5
sI769
I5
sI770
I7
sI771
I6
sI772
I7
sI773
I7
sI774
I7
sI775
I6
sI776
I6
sI777
I6
sI778
I5
sI779
I6
sI780
I6
sI781
I6
sI782
I6
sI783
I6
sI784
I6
sI785
I7
sI786
I7
sI787
I6
sI788
I6
sI789
I5
sI790
I7
sI791
I8
sI792
I9
sI793
I9
sI794
I9
sI795
I9
sI796
I10
sI797
I9
sI798
I10
sI799
I8
sI800
I6
sI801
I6
sI802
I7
sI803
I8
sI804
I7
sI805
I6
sI806
I6
sI807
I6
sI808
I5
sI809
I5
sI810
I5
sI811
I6
sI812
I7
sI813
I6
sI814
I6
sI815
I5
sI816
I5
sI817
I6
sI818
I7
sI819
I6
sI820
I5
sI821
I5
sI822
I5
sI823
I5
sI824
I5
sI825
I5
sI826
I5
sI827
I5
sI828
I5
sI829
I6
sI830
I5
sI831
I2
sI832
I2
sI833
I2
sI834
I2
sI835
I1
sI836
I2
sI837
I1
sI838
I1
sI839
I1
sI840
I1
sI841
I1
sI842
I1
sI843
I1
sI844
I1
sI845
I1
sI846
I0
sI847
I1
sI848
I1
sI849
I1
sI850
I1
sI851
I1
sI852
I1
sI853
I1
sI854
I1
sI855
I1
sI856
I1
sI857
I1
sI858
I1
sI859
I1
sI860
I1
sI861
I1
sI862
I1
sI863
I1
sI864
I1
sI865
I1
sI866
I1
sI867
I1
sI868
I1
sI869
I1
sI870
I1
sI871
I1
sI872
I1
sI873
I1
sI874
I1
sI875
I1
sI876
I1
sI877
I1
sI878
I1
sI879
I1
sI880
I1
sI881
I1
sI882
I1
sI883
I2
sI884
I2
sI885
I2
sI886
I2
sI887
I2
sI888
I2
sI889
I2
sI890
I2
sI891
I2
sI892
I2
sI893
I2
sI894
I2
sI895
I2
sI896
I5
sI897
I5
sa.