((lp1
I0
aI1
aI2
aI3
aI4
aI5
aI6
aI7
aI8
aI9
aI10
aI11
aI12
aI13
aI14
aI15
aI16
aI17
aI18
aI19
aI20
aI21
aI22
aI23
aI24
aI25
aI26
aI27
aI28
aI29
aI30
aI31
aI32
aI33
aI34
aI35
aI36
aI37
aI38
aI39
aI40
aI41
aI42
aI43
aI44
aI45
aI46
aI47
aI48
aI49
aI50
aI51
aI52
aI53
aI54
aI55
aI56
aI57
aI58
aI59
aI60
aI61
aI62
aI63
aI64
aI65
aI66
aI67
aI68
aI69
aI70
aI71
aI72
aI73
aI74
aI75
aI76
aI77
aI78
aI79
aI80
aI81
aI82
aI83
aI84
aI85
aI86
aI87
aI88
aI89
aI90
aI91
aI92
aI93
aI94
aI95
aI96
aI97
aI98
aI99
aI100
a(lp2
F0.020851615261930488
aF0.11980537300682528
aF0.067744481473721987
aF9.992589688842966e-10
aF7.8933974285075793e-54
aF0.33333507114328936
aF0.22222338076219267
aF0.12698478900696725
aF0.06349239450348361
aF0.028218842001548314
aF0.011287536800619315
aF0.0041045588365888419
aF0.0013681862788629479
aF0.00042098039349629197
aF0.00012028011242751155
aF3.2074696647336408e-05
aF8.0186741618340985e-06
aF1.8867468616080252e-06
aF4.192770803573402e-07
aF8.8268859022597819e-08
aF1.7653771804519576e-08
aF3.3626232008608741e-09
aF6.1138603652015677e-10
aF1.0632800635133162e-10
aF1.7721334391888611e-11
aF2.835413502702193e-12
aF4.3621746195418139e-13
aF6.4624809178397933e-14
aF9.2321155969138434e-15
aF1.2733952547467591e-15
aF1.6978603396623357e-16
aF2.1907875350481778e-17
aF2.7384844188102261e-18
aF3.3193750531032237e-19
aF3.9051471212980181e-20
aF4.4630252814834445e-21
aF4.9589169794260022e-22
aF5.36099132910932e-23
aF5.6431487674833744e-24
aF5.7878448897265764e-25
aF5.7878448897265503e-26
aF5.6466779411966489e-27
aF5.3777885154254306e-28
aF5.0025939678375241e-29
aF4.5478126980341361e-30
aF4.0425001760301941e-31
aF3.5152175443742627e-32
aF2.9916745058503504e-33
aF2.4930620882086573e-34
aF2.0351527250683204e-35
aF1.6281221800546502e-36
aF1.2769585725918323e-37
aF9.8227582507064752e-39
aF7.4134024533633357e-40
aF5.4914092247136307e-41
aF3.9937521634280061e-42
aF2.8526801167343401e-43
aF2.0018807836732729e-44
aF1.3806074370160323e-45
aF9.3600504204477849e-47
aF6.2400336136315869e-48
aF4.0918253204142188e-49
aF2.6398873034931542e-50
aF1.6761189228527715e-51
aF1.0475743267829744e-52
aF6.4466112417415276e-54
aF3.9070371162068563e-55
aF2.3325594723622722e-56
aF1.3720938072719211e-57
aF7.9541669986777969e-59
aF4.5452382849590175e-60
aF2.5606976253289085e-61
aF1.4226097918493977e-62
aF7.7951221471198371e-64
aF4.2135795389839391e-65
aF2.2472424207913712e-66
aF1.1827591688375536e-67
aF6.1442034744807972e-69
aF3.1508735766569453e-70
aF1.5953790261554935e-71
aF7.9768951307766224e-73
aF3.9392074719883955e-74
aF1.9215646204821048e-75
aF9.2605523878661387e-77
aF4.4097868513649239e-78
aF2.0751938124069896e-79
aF9.6520642437535323e-81
aF4.4377306867830686e-82
aF2.0171503121741864e-83
aF9.0658440996597338e-85
aF4.0292640442930584e-86
aF1.7711050744144346e-87
aF7.7004568452800955e-89
aF3.3120244495829887e-90
aF1.409372106205564e-91
aF5.9341983419182025e-93
aF2.4725826424657694e-94
aF1.0196217082333034e-95
aF4.1617212580952852e-97
aF1.6815035386243325e-98
aF6.726014154497484e-100
at.