(lp1
(dp2
I1
I4
sI2
I4
sI3
I4
sI4
I4
sI5
I4
sI6
I4
sI7
I4
sI8
I4
sI9
I4
sI10
I4
sI11
I4
sI12
I4
sI13
I4
sI14
I4
sI15
I4
sI16
I4
sI17
I4
sI18
I4
sI19
I4
sI20
I4
sI21
I4
sI22
I4
sI23
I4
sI24
I4
sI25
I4
sI26
I4
sI27
I5
sI28
I5
sI29
I5
sI30
I5
sI31
I5
sI32
I5
sI33
I5
sI34
I5
sI35
I5
sI36
I5
sI37
I5
sI38
I5
sI39
I5
sI40
I5
sI41
I5
sI42
I5
sI43
I5
sI44
I5
sI45
I5
sI46
I5
sI47
I5
sI48
I5
sI49
I5
sI50
I5
sI51
I5
sI52
I5
sI53
I5
sI54
I5
sI55
I2
sI56
I2
sI57
I2
sI58
I2
sI59
I2
sI60
I2
sI61
I2
sI62
I2
sI63
I2
sI64
I2
sI65
I2
sI66
I2
sI67
I2
sI68
I3
sI69
I3
sI70
I3
sI71
I3
sI72
I3
sI73
I3
sI74
I3
sI75
I3
sI76
I3
sI77
I3
sI78
I3
sI79
I3
sI80
I3
sI81
I3
sI82
I3
sI83
I3
sI84
I3
sI85
I3
sI86
I3
sI87
I3
sI88
I3
sI89
I4
sI90
I4
sI91
I4
sI92
I4
sI93
I4
sI94
I4
sI95
I4
sI96
I4
sI97
I4
sI98
I4
sI99
I4
sI100
I4
sI101
I4
sI102
I4
sI103
I4
sI104
I4
sI105
I4
sI106
I4
sI107
I4
sI108
I4
sI109
I4
sI110
I4
sI111
I4
sI112
I4
sI113
I4
sI114
I4
sI115
I4
sI116
I4
sI117
I4
sI118
I4
sI119
I4
sI120
I4
sI121
I4
sI122
I4
sI123
I4
sI124
I4
sI125
I4
sI126
I4
sI127
I4
sI128
I4
sI129
I4
sI130
I4
sI131
I4
sI132
I4
sI133
I4
sI134
I4
sI135
I4
sI136
I4
sI137
I4
sI138
I4
sI139
I4
sI140
I4
sI141
I4
sI142
I4
sI143
I4
sI144
I4
sI145
I4
sI146
I4
sI147
I4
sI148
I4
sI149
I4
sI150
I4
sI151
I4
sI152
I4
sI153
I4
sI154
I4
sI155
I4
sI156
I4
sI157
I4
sI158
I2
sI159
I2
sI160
I2
sI161
I2
sI162
I2
sI163
I2
sI164
I2
sI165
I2
sI166
I2
sI167
I2
sI168
I2
sI169
I2
sI170
I2
sI171
I2
sI172
I2
sI173
I2
sI174
I2
sI175
I2
sI176
I2
sI177
I2
sI178
I2
sI179
I2
sI180
I2
sI181
I2
sI182
I3
sI183
I3
sI184
I3
sI185
I3
sI186
I3
sI187
I3
sI188
I3
sI189
I3
sI190
I3
sI191
I3
sI192
I3
sI193
I3
sI194
I3
sI195
I3
sI196
I3
sI197
I3
sI198
I3
sI199
I3
sI200
I3
sI201
I3
sI202
I3
sI203
I3
sI204
I3
sI205
I3
sI206
I3
sI207
I3
sI208
I3
sI209
I3
sI210
I3
sI211
I3
sI212
I3
sI213
I3
sI214
I3
sI215
I3
sI216
I3
sI217
I3
sI218
I3
sI219
I3
sI220
I3
sI221
I3
sI222
I3
sI223
I3
sI224
I3
sI225
I3
sI226
I3
sI227
I3
sI228
I3
sI229
I3
sI230
I3
sI231
I3
sI232
I3
sI233
I3
sI234
I3
sI235
I3
sI236
I3
sI237
I3
sI238
I3
sI239
I3
sI240
I3
sI241
I3
sI242
I3
sI243
I3
sI244
I3
sI245
I3
sI246
I3
sI247
I3
sI248
I3
sI249
I3
sI250
I3
sI251
I3
sI252
I3
sI253
I3
sI254
I3
sI255
I3
sI256
I3
sI257
I3
sI258
I3
sI259
I3
sI260
I3
sI261
I3
sI262
I3
sI263
I3
sI264
I3
sI265
I3
sI266
I3
sI267
I3
sI268
I3
sI269
I3
sI270
I3
sI271
I3
sI272
I3
sI273
I3
sI274
I3
sI275
I3
sI276
I3
sI277
I3
sI278
I3
sI279
I3
sI280
I3
sI281
I3
sI282
I3
sI283
I3
sI284
I3
sI285
I3
sI286
I3
sI287
I3
sI288
I3
sI289
I3
sI290
I3
sI291
I3
sI292
I3
sI293
I3
sI294
I3
sI295
I3
sI296
I3
sI297
I3
sI298
I3
sI299
I3
sI300
I3
sI301
I3
sI302
I3
sI303
I3
sI304
I3
sI305
I3
sI306
I3
sI307
I3
sI308
I3
sI309
I3
sI310
I3
sI311
I3
sI312
I3
sI313
I3
sI314
I3
sI315
I3
sI316
I3
sI317
I3
sI318
I3
sI319
I3
sI320
I3
sI321
I3
sI322
I3
sI323
I3
sI324
I3
sI325
I3
sI326
I3
sI327
I3
sI328
I3
sI329
I3
sI330
I3
sI331
I3
sI332
I3
sI333
I3
sI334
I3
sI335
I3
sI336
I3
sI337
I3
sI338
I3
sI339
I3
sI340
I3
sI341
I3
sI342
I3
sI343
I3
sI344
I3
sI345
I3
sI346
I3
sI347
I3
sI348
I3
sI349
I3
sI350
I3
sI351
I3
sI352
I3
sI353
I3
sI354
I3
sI355
I3
sI356
I3
sI357
I3
sI358
I3
sI359
I3
sI360
I3
sI361
I3
sI362
I3
sI363
I3
sI364
I3
sI365
I3
sI366
I3
sI367
I3
sI368
I3
sI369
I3
sI370
I3
sI371
I3
sI372
I3
sI373
I3
sI374
I3
sI375
I3
sI376
I3
sI377
I3
sI378
I3
sI379
I3
sI380
I3
sI381
I3
sI382
I3
sI383
I3
sI384
I3
sI385
I3
sI386
I3
sI387
I3
sI388
I3
sI389
I3
sI390
I3
sI391
I3
sI392
I3
sI393
I3
sI394
I3
sI395
I3
sI396
I3
sI397
I3
sI398
I3
sI399
I3
sI400
I3
sI401
I3
sI402
I3
sI403
I3
sI404
I3
sI405
I3
sI406
I3
sI407
I3
sI408
I3
sI409
I3
sI410
I3
sI411
I3
sI412
I3
sI413
I3
sI414
I3
sI415
I3
sI416
I3
sI417
I3
sI418
I3
sI419
I3
sI420
I3
sI421
I3
sI422
I3
sI423
I3
sI424
I3
sI425
I3
sI426
I3
sI427
I3
sI428
I3
sI429
I3
sI430
I3
sI431
I3
sI432
I3
sI433
I3
sI434
I3
sI435
I3
sI436
I3
sI437
I3
sI438
I3
sI439
I3
sI440
I3
sI441
I3
sI442
I3
sI443
I3
sI444
I3
sI445
I3
sI446
I3
sI447
I3
sI448
I3
sI449
I3
sI450
I3
sI451
I3
sI452
I3
sI453
I3
sI454
I3
sI455
I3
sI456
I3
sI457
I3
sI458
I3
sI459
I3
sI460
I3
sI461
I3
sI462
I3
sI463
I3
sI464
I3
sI465
I3
sI466
I3
sI467
I3
sI468
I3
sI469
I3
sI470
I3
sI471
I3
sI472
I3
sI473
I3
sI474
I3
sI475
I3
sI476
I3
sI477
I3
sI478
I3
sI479
I3
sI480
I3
sI481
I3
sI482
I3
sI483
I3
sI484
I3
sI485
I3
sI486
I3
sI487
I3
sI488
I3
sI489
I3
sI490
I3
sI491
I3
sI492
I3
sI493
I3
sI494
I3
sI495
I3
sI496
I3
sI497
I3
sI498
I3
sI499
I3
sI500
I3
sI501
I3
sI502
I3
sI503
I3
sI504
I3
sI505
I3
sI506
I3
sI507
I3
sI508
I3
sI509
I3
sI510
I3
sI511
I3
sI512
I3
sI513
I3
sI514
I3
sI515
I3
sI516
I3
sI517
I3
sI518
I3
sI519
I3
sI520
I3
sI521
I3
sI522
I3
sI523
I3
sI524
I3
sI525
I3
sI526
I3
sI527
I3
sI528
I3
sI529
I3
sI530
I3
sI531
I3
sI532
I3
sI533
I3
sI534
I3
sI535
I3
sI536
I3
sI537
I3
sI538
I3
sI539
I3
sI540
I3
sI541
I3
sI542
I3
sI543
I3
sI544
I3
sI545
I3
sI546
I3
sI547
I3
sI548
I3
sI549
I3
sI550
I3
sI551
I3
sI552
I3
sI553
I3
sI554
I3
sI555
I3
sI556
I3
sI557
I3
sI558
I3
sI559
I3
sI560
I3
sI561
I3
sI562
I3
sI563
I3
sI564
I3
sI565
I3
sI566
I3
sI567
I3
sI568
I3
sI569
I3
sI570
I3
sI571
I3
sI572
I3
sI573
I3
sI574
I3
sI575
I3
sI576
I3
sI577
I3
sI578
I3
sI579
I3
sI580
I3
sI581
I3
sI582
I3
sI583
I3
sI584
I3
sI585
I3
sI586
I3
sI587
I3
sI588
I3
sI589
I3
sI590
I3
sI591
I3
sI592
I3
sI593
I3
sI594
I3
sI595
I3
sI596
I3
sI597
I3
sI598
I3
sI599
I3
sI600
I3
sI601
I3
sI602
I3
sI603
I3
sI604
I3
sI605
I3
sI606
I3
sI607
I3
sI608
I3
sI609
I3
sI610
I3
sI611
I3
sI612
I3
sI613
I3
sI614
I3
sI615
I3
sI616
I3
sI617
I3
sI618
I3
sI619
I3
sI620
I3
sI621
I3
sI622
I3
sI623
I3
sI624
I3
sI625
I3
sI626
I3
sI627
I3
sI628
I3
sI629
I3
sI630
I3
sI631
I3
sI632
I3
sI633
I3
sI634
I3
sI635
I3
sI636
I3
sI637
I3
sI638
I3
sI639
I3
sI640
I3
sI641
I3
sI642
I3
sI643
I3
sI644
I3
sI645
I3
sI646
I3
sI647
I3
sI648
I3
sI649
I3
sI650
I3
sI651
I3
sI652
I3
sI653
I3
sI654
I3
sI655
I3
sI656
I3
sI657
I3
sI658
I3
sI659
I3
sI660
I3
sI661
I3
sI662
I3
sI663
I3
sI664
I3
sI665
I3
sI666
I3
sI667
I3
sI668
I3
sI669
I3
sI670
I3
sI671
I3
sI672
I3
sI673
I3
sI674
I3
sI675
I3
sI676
I3
sI677
I3
sI678
I3
sI679
I3
sI680
I3
sI681
I3
sI682
I3
sI683
I3
sI684
I3
sI685
I3
sI686
I3
sI687
I3
sI688
I3
sI689
I3
sI690
I3
sI691
I3
sI692
I3
sI693
I3
sI694
I3
sI695
I3
sI696
I3
sI697
I3
sI698
I3
sI699
I3
sI700
I3
sI701
I3
sI702
I3
sI703
I3
sI704
I3
sI705
I3
sI706
I3
sI707
I3
sI708
I3
sI709
I3
sI710
I3
sI711
I3
sI712
I3
sI713
I3
sI714
I3
sI715
I3
sI716
I3
sI717
I3
sI718
I3
sI719
I3
sI720
I3
sI721
I3
sI722
I3
sI723
I3
sI724
I3
sI725
I3
sI726
I3
sI727
I3
sI728
I3
sI729
I3
sI730
I3
sI731
I3
sI732
I3
sI733
I3
sI734
I3
sI735
I3
sI736
I3
sI737
I3
sI738
I3
sI739
I3
sI740
I3
sI741
I3
sI742
I3
sI743
I3
sI744
I3
sI745
I3
sI746
I3
sI747
I3
sI748
I3
sI749
I3
sI750
I3
sI751
I3
sI752
I3
sI753
I3
sI754
I3
sI755
I3
sI756
I3
sI757
I3
sI758
I3
sI759
I3
sI760
I3
sI761
I3
sI762
I3
sI763
I3
sI764
I3
sI765
I3
sI766
I3
sI767
I3
sI768
I3
sI769
I3
sI770
I3
sI771
I3
sI772
I3
sI773
I3
sI774
I3
sI775
I3
sI776
I3
sI777
I3
sI778
I3
sI779
I3
sI780
I3
sI781
I3
sI782
I3
sI783
I3
sI784
I3
sI785
I3
sI786
I3
sI787
I3
sI788
I3
sI789
I3
sI790
I3
sI791
I3
sI792
I3
sI793
I3
sI794
I3
sI795
I3
sI796
I3
sI797
I3
sI798
I3
sI799
I3
sI800
I3
sI801
I3
sI802
I3
sI803
I3
sI804
I3
sI805
I3
sI806
I3
sI807
I3
sI808
I3
sI809
I3
sI810
I3
sI811
I3
sI812
I3
sI813
I3
sI814
I3
sI815
I3
sI816
I3
sI817
I3
sI818
I3
sI819
I3
sI820
I3
sI821
I3
sI822
I3
sI823
I3
sI824
I3
sI825
I3
sI826
I3
sI827
I3
sI828
I3
sI829
I3
sI830
I3
sI831
I3
sI832
I3
sI833
I3
sI834
I3
sI835
I3
sI836
I3
sI837
I3
sI838
I3
sI839
I3
sI840
I3
sI841
I3
sI842
I3
sI843
I3
sI844
I3
sI845
I3
sI846
I3
sI847
I3
sI848
I3
sI849
I3
sI850
I3
sI851
I3
sI852
I3
sI853
I3
sI854
I3
sI855
I3
sI856
I3
sI857
I3
sI858
I3
sI859
I3
sI860
I3
sI861
I3
sI862
I3
sI863
I3
sI864
I3
sI865
I3
sI866
I3
sI867
I3
sI868
I3
sI869
I3
sI870
I3
sI871
I3
sI872
I3
sI873
I3
sI874
I3
sI875
I3
sI876
I3
sI877
I3
sI878
I3
sI879
I3
sI880
I3
sI881
I3
sI882
I3
sI883
I3
sI884
I3
sI885
I3
sI886
I3
sI887
I3
sI888
I3
sI889
I3
sI890
I3
sI891
I3
sI892
I3
sI893
I3
sI894
I3
sI895
I3
sI896
I3
sI897
I3
sI898
I3
sI899
I3
sI900
I3
sI901
I3
sI902
I3
sI903
I3
sI904
I3
sI905
I3
sI906
I3
sI907
I3
sI908
I3
sI909
I3
sI910
I3
sI911
I3
sI912
I3
sI913
I3
sI914
I3
sI915
I3
sI916
I3
sI917
I3
sI918
I3
sI919
I3
sI920
I3
sI921
I3
sI922
I3
sI923
I3
sI924
I3
sI925
I3
sI926
I3
sI927
I3
sI928
I3
sI929
I3
sI930
I3
sI931
I3
sI932
I3
sI933
I3
sI934
I3
sI935
I3
sI936
I3
sI937
I3
sI938
I3
sI939
I3
sI940
I3
sI941
I3
sI942
I3
sI943
I3
sI944
I3
sI945
I3
sI946
I3
sI947
I3
sI948
I3
sI949
I3
sI950
I3
sI951
I3
sI952
I3
sI953
I3
sI954
I3
sI955
I3
sI956
I3
sI957
I3
sI958
I3
sI959
I3
sI960
I3
sI961
I3
sI962
I3
sI963
I3
sI964
I3
sI965
I3
sI966
I3
sI967
I3
sI968
I3
sI969
I3
sI970
I3
sI971
I3
sI972
I3
sI973
I3
sI974
I3
sI975
I3
sI976
I3
sI977
I3
sI978
I3
sI979
I3
sI980
I3
sI981
I3
sI982
I3
sI983
I3
sI984
I3
sI985
I3
sI986
I3
sI987
I3
sI988
I3
sI989
I3
sI990
I3
sI991
I3
sI992
I3
sI993
I3
sI994
I3
sI995
I3
sI996
I3
sI997
I3
sI998
I3
sI999
I3
sI1000
I3
sI1001
I3
sI1002
I3
sI1003
I3
sI1004
I3
sI1005
I3
sI1006
I3
sI1007
I3
sI1008
I3
sI1009
I3
sI1010
I3
sI1011
I3
sI1012
I3
sI1013
I3
sI1014
I3
sI1015
I3
sI1016
I3
sI1017
I3
sI1018
I3
sI1019
I3
sI1020
I3
sI1021
I3
sI1022
I3
sI1023
I3
sI1024
I3
sI1025
I3
sI1026
I3
sI1027
I3
sI1028
I3
sI1029
I3
sI1030
I3
sI1031
I3
sI1032
I3
sI1033
I3
sI1034
I3
sI1035
I3
sI1036
I3
sI1037
I3
sI1038
I3
sI1039
I3
sI1040
I3
sI1041
I3
sI1042
I3
sI1043
I3
sI1044
I3
sI1045
I3
sI1046
I3
sI1047
I3
sI1048
I3
sI1049
I3
sI1050
I3
sI1051
I3
sI1052
I3
sI1053
I3
sI1054
I3
sI1055
I3
sI1056
I3
sI1057
I3
sI1058
I3
sI1059
I3
sI1060
I3
sI1061
I3
sI1062
I3
sI1063
I3
sI1064
I3
sI1065
I3
sI1066
I3
sI1067
I3
sI1068
I3
sI1069
I3
sI1070
I3
sI1071
I3
sI1072
I3
sI1073
I3
sI1074
I3
sI1075
I3
sI1076
I3
sI1077
I3
sI1078
I3
sI1079
I3
sI1080
I3
sI1081
I3
sI1082
I3
sI1083
I3
sI1084
I3
sI1085
I3
sI1086
I3
sI1087
I3
sI1088
I3
sI1089
I3
sI1090
I3
sI1091
I3
sI1092
I3
sI1093
I3
sI1094
I3
sI1095
I3
sI1096
I3
sI1097
I3
sI1098
I3
sI1099
I3
sI1100
I3
sI1101
I3
sI1102
I3
sI1103
I3
sI1104
I3
sI1105
I3
sI1106
I3
sI1107
I3
sI1108
I3
sI1109
I3
sI1110
I3
sI1111
I3
sI1112
I3
sI1113
I3
sI1114
I3
sI1115
I3
sI1116
I3
sI1117
I3
sI1118
I3
sI1119
I3
sI1120
I3
sI1121
I3
sI1122
I3
sI1123
I3
sI1124
I3
sI1125
I3
sI1126
I3
sI1127
I3
sI1128
I3
sI1129
I3
sI1130
I3
sI1131
I3
sI1132
I3
sI1133
I3
sI1134
I3
sI1135
I3
sI1136
I3
sI1137
I3
sI1138
I3
sI1139
I3
sI1140
I3
sI1141
I3
sI1142
I3
sI1143
I3
sI1144
I3
sI1145
I3
sI1146
I3
sI1147
I3
sI1148
I3
sI1149
I3
sI1150
I3
sI1151
I3
sI1152
I3
sI1153
I3
sI1154
I3
sI1155
I3
sI1156
I3
sI1157
I3
sI1158
I3
sI1159
I3
sI1160
I3
sI1161
I3
sI1162
I3
sI1163
I3
sI1164
I3
sI1165
I3
sI1166
I3
sI1167
I3
sI1168
I3
sI1169
I3
sI1170
I3
sI1171
I3
sI1172
I3
sI1173
I3
sI1174
I3
sI1175
I3
sI1176
I3
sI1177
I3
sI1178
I3
sI1179
I3
sI1180
I3
sI1181
I3
sI1182
I3
sI1183
I3
sI1184
I3
sI1185
I3
sI1186
I3
sI1187
I3
sI1188
I3
sI1189
I3
sI1190
I3
sI1191
I3
sI1192
I3
sI1193
I3
sI1194
I3
sI1195
I3
sI1196
I3
sI1197
I3
sI1198
I3
sI1199
I3
sI1200
I3
sI1201
I3
sI1202
I3
sI1203
I3
sI1204
I3
sI1205
I3
sI1206
I3
sI1207
I3
sI1208
I3
sI1209
I3
sI1210
I3
sI1211
I3
sI1212
I3
sI1213
I3
sI1214
I3
sI1215
I3
sI1216
I3
sI1217
I3
sI1218
I3
sI1219
I3
sI1220
I3
sI1221
I3
sI1222
I3
sI1223
I3
sI1224
I3
sI1225
I3
sI1226
I3
sI1227
I3
sI1228
I3
sI1229
I3
sI1230
I3
sI1231
I3
sI1232
I3
sI1233
I3
sI1234
I3
sI1235
I3
sI1236
I3
sI1237
I3
sI1238
I3
sI1239
I3
sI1240
I3
sI1241
I3
sI1242
I3
sI1243
I3
sI1244
I3
sI1245
I3
sI1246
I3
sI1247
I3
sI1248
I3
sI1249
I3
sI1250
I3
sI1251
I3
sI1252
I3
sI1253
I3
sI1254
I3
sI1255
I3
sI1256
I3
sI1257
I3
sI1258
I3
sI1259
I3
sI1260
I3
sI1261
I3
sI1262
I3
sI1263
I3
sI1264
I3
sI1265
I3
sI1266
I3
sI1267
I3
sI1268
I3
sI1269
I3
sI1270
I3
sI1271
I3
sI1272
I3
sI1273
I3
sI1274
I3
sI1275
I3
sI1276
I3
sI1277
I3
sI1278
I3
sI1279
I3
sI1280
I3
sI1281
I3
sI1282
I3
sI1283
I3
sI1284
I3
sI1285
I3
sI1286
I3
sI1287
I3
sI1288
I3
sI1289
I3
sI1290
I3
sI1291
I3
sI1292
I3
sI1293
I3
sI1294
I3
sI1295
I3
sI1296
I3
sI1297
I3
sI1298
I3
sI1299
I3
sI1300
I3
sI1301
I3
sI1302
I3
sI1303
I3
sI1304
I3
sI1305
I3
sI1306
I3
sI1307
I3
sI1308
I3
sI1309
I3
sI1310
I3
sI1311
I3
sI1312
I3
sI1313
I3
sI1314
I3
sa(dp3
I1
I3
sI2
I3
sI3
I3
sI4
I1
sI5
I1
sI6
I1
sI7
I1
sI8
I1
sI9
I1
sI10
I1
sI11
I1
sI12
I1
sI13
I1
sI14
I1
sI15
I1
sI16
I1
sI17
I1
sI18
I1
sI19
I1
sI20
I1
sI21
I1
sI22
I1
sI23
I1
sI24
I1
sI25
I1
sI26
I1
sI27
I2
sI28
I2
sI29
I2
sI30
I2
sI31
I2
sI32
I2
sI33
I2
sI34
I2
sI35
I2
sI36
I2
sI37
I2
sI38
I2
sI39
I2
sI40
I2
sI41
I2
sI42
I2
sI43
I2
sI44
I2
sI45
I2
sI46
I2
sI47
I2
sI48
I2
sI49
I2
sI50
I2
sI51
I2
sI52
I2
sI53
I2
sI54
I2
sI55
I2
sI56
I2
sI57
I2
sI58
I2
sI59
I2
sI60
I2
sI61
I2
sI62
I2
sI63
I2
sI64
I2
sI65
I2
sI66
I2
sI67
I2
sI68
I2
sI69
I2
sI70
I2
sI71
I2
sI72
I2
sI73
I2
sI74
I2
sI75
I2
sI76
I2
sI77
I2
sI78
I2
sI79
I2
sI80
I2
sI81
I2
sI82
I2
sI83
I2
sI84
I2
sI85
I2
sI86
I2
sI87
I2
sI88
I2
sI89
I1
sI90
I1
sI91
I1
sI92
I1
sI93
I1
sI94
I1
sI95
I1
sI96
I1
sI97
I1
sI98
I1
sI99
I1
sI100
I1
sI101
I1
sI102
I1
sI103
I1
sI104
I1
sI105
I1
sI106
I3
sI107
I3
sI108
I3
sI109
I3
sI110
I3
sI111
I3
sI112
I3
sI113
I3
sI114
I3
sI115
I3
sI116
I3
sI117
I3
sI118
I3
sI119
I3
sI120
I3
sI121
I3
sI122
I3
sI123
I3
sI124
I3
sI125
I3
sI126
I3
sI127
I3
sI128
I3
sI129
I3
sI130
I3
sI131
I3
sI132
I3
sI133
I3
sI134
I3
sI135
I3
sI136
I3
sI137
I3
sI138
I3
sI139
I3
sI140
I3
sI141
I3
sI142
I3
sI143
I3
sI144
I3
sI145
I3
sI146
I3
sI147
I3
sI148
I3
sI149
I3
sI150
I3
sI151
I3
sI152
I3
sI153
I3
sI154
I3
sI155
I3
sI156
I3
sI157
I3
sI158
I3
sI159
I3
sI160
I3
sI161
I3
sI162
I3
sI163
I3
sI164
I3
sI165
I3
sI166
I3
sI167
I3
sI168
I3
sI169
I3
sI170
I3
sI171
I3
sI172
I3
sI173
I3
sI174
I3
sI175
I3
sI176
I3
sI177
I3
sI178
I3
sI179
I3
sI180
I3
sI181
I2
sI182
I2
sI183
I2
sI184
I2
sI185
I2
sI186
I2
sI187
I2
sI188
I2
sI189
I2
sI190
I2
sI191
I2
sI192
I2
sI193
I2
sI194
I2
sI195
I2
sI196
I2
sI197
I2
sI198
I2
sI199
I2
sI200
I2
sI201
I2
sI202
I2
sI203
I2
sI204
I2
sI205
I2
sI206
I2
sI207
I2
sI208
I2
sI209
I2
sI210
I2
sI211
I2
sI212
I2
sI213
I2
sI214
I2
sI215
I2
sI216
I2
sI217
I2
sI218
I2
sI219
I2
sI220
I2
sI221
I2
sI222
I2
sI223
I2
sI224
I2
sI225
I2
sI226
I2
sI227
I2
sI228
I2
sI229
I2
sI230
I2
sI231
I2
sI232
I2
sI233
I2
sI234
I2
sI235
I2
sI236
I2
sI237
I2
sI238
I2
sI239
I2
sI240
I2
sI241
I2
sI242
I2
sI243
I2
sI244
I2
sI245
I2
sI246
I2
sI247
I2
sI248
I2
sI249
I2
sI250
I2
sI251
I2
sI252
I2
sI253
I2
sI254
I2
sI255
I2
sI256
I2
sI257
I2
sI258
I2
sI259
I2
sI260
I2
sI261
I2
sI262
I2
sI263
I2
sI264
I2
sI265
I2
sI266
I2
sI267
I2
sI268
I2
sI269
I2
sI270
I2
sI271
I2
sI272
I2
sI273
I2
sI274
I2
sI275
I2
sI276
I2
sI277
I2
sI278
I2
sI279
I2
sI280
I2
sI281
I2
sI282
I2
sI283
I2
sI284
I2
sI285
I2
sI286
I2
sI287
I2
sI288
I2
sI289
I2
sI290
I2
sI291
I2
sI292
I2
sI293
I2
sI294
I2
sI295
I2
sI296
I2
sI297
I2
sI298
I2
sI299
I2
sI300
I3
sI301
I3
sI302
I3
sI303
I3
sI304
I3
sI305
I3
sI306
I3
sI307
I3
sI308
I3
sI309
I3
sI310
I3
sI311
I3
sI312
I3
sI313
I3
sI314
I3
sI315
I3
sI316
I3
sI317
I3
sI318
I3
sI319
I3
sI320
I3
sI321
I3
sI322
I3
sI323
I3
sI324
I3
sI325
I3
sI326
I3
sI327
I3
sI328
I3
sI329
I4
sI330
I4
sI331
I4
sI332
I4
sI333
I3
sI334
I3
sI335
I3
sI336
I3
sI337
I3
sI338
I3
sI339
I3
sI340
I3
sI341
I3
sI342
I3
sI343
I4
sI344
I4
sI345
I4
sI346
I4
sI347
I4
sI348
I4
sI349
I4
sI350
I4
sI351
I4
sI352
I4
sI353
I2
sI354
I2
sI355
I2
sI356
I2
sI357
I2
sI358
I2
sI359
I2
sI360
I2
sI361
I2
sI362
I2
sI363
I2
sI364
I2
sI365
I2
sI366
I2
sI367
I2
sI368
I2
sI369
I2
sI370
I2
sI371
I2
sI372
I2
sI373
I2
sI374
I2
sI375
I2
sI376
I2
sI377
I2
sI378
I2
sI379
I2
sI380
I2
sI381
I2
sI382
I2
sI383
I2
sI384
I2
sI385
I2
sI386
I2
sI387
I2
sI388
I2
sI389
I2
sI390
I2
sI391
I2
sI392
I2
sI393
I2
sI394
I2
sI395
I2
sI396
I2
sI397
I2
sI398
I2
sI399
I2
sI400
I2
sI401
I2
sI402
I2
sI403
I2
sI404
I2
sI405
I2
sI406
I2
sI407
I2
sI408
I2
sI409
I2
sI410
I2
sI411
I2
sI412
I2
sI413
I2
sI414
I2
sI415
I2
sI416
I2
sI417
I2
sI418
I2
sI419
I2
sI420
I2
sI421
I2
sI422
I2
sI423
I2
sI424
I2
sI425
I2
sI426
I2
sI427
I2
sI428
I2
sI429
I2
sI430
I2
sI431
I2
sI432
I2
sI433
I2
sI434
I2
sI435
I2
sI436
I2
sI437
I2
sI438
I2
sI439
I2
sI440
I2
sI441
I2
sI442
I2
sI443
I2
sI444
I2
sI445
I2
sI446
I2
sI447
I4
sI448
I4
sI449
I4
sI450
I4
sI451
I4
sI452
I4
sI453
I4
sI454
I4
sI455
I4
sI456
I4
sI457
I4
sI458
I4
sI459
I4
sI460
I4
sI461
I4
sI462
I4
sI463
I4
sI464
I4
sI465
I4
sI466
I4
sI467
I4
sI468
I4
sI469
I4
sI470
I4
sI471
I4
sI472
I4
sI473
I4
sI474
I4
sI475
I4
sI476
I4
sI477
I4
sI478
I4
sI479
I4
sI480
I4
sI481
I4
sI482
I4
sI483
I4
sI484
I4
sI485
I4
sI486
I4
sI487
I4
sI488
I4
sI489
I4
sI490
I4
sI491
I4
sI492
I4
sI493
I4
sI494
I4
sI495
I4
sI496
I4
sI497
I4
sI498
I4
sI499
I4
sI500
I4
sI501
I4
sI502
I4
sI503
I4
sI504
I4
sI505
I4
sI506
I4
sI507
I4
sI508
I4
sI509
I4
sI510
I4
sI511
I4
sI512
I4
sI513
I4
sI514
I4
sI515
I4
sI516
I4
sI517
I4
sI518
I4
sI519
I4
sI520
I4
sI521
I4
sI522
I4
sI523
I4
sI524
I4
sI525
I4
sI526
I4
sI527
I4
sI528
I4
sI529
I4
sI530
I4
sI531
I4
sI532
I4
sI533
I4
sI534
I4
sI535
I4
sI536
I4
sI537
I4
sI538
I4
sI539
I4
sI540
I4
sI541
I4
sI542
I4
sI543
I4
sI544
I4
sI545
I4
sI546
I4
sI547
I4
sI548
I4
sI549
I4
sI550
I4
sI551
I4
sI552
I4
sI553
I4
sI554
I4
sI555
I4
sI556
I4
sI557
I4
sI558
I4
sI559
I4
sI560
I4
sI561
I4
sI562
I4
sI563
I4
sI564
I4
sI565
I4
sI566
I4
sI567
I4
sI568
I4
sI569
I4
sI570
I4
sI571
I4
sI572
I4
sI573
I4
sI574
I4
sI575
I4
sI576
I4
sI577
I4
sI578
I4
sI579
I4
sI580
I4
sI581
I4
sI582
I4
sI583
I4
sI584
I4
sI585
I4
sI586
I4
sI587
I4
sI588
I4
sI589
I4
sI590
I4
sI591
I4
sI592
I4
sI593
I4
sI594
I4
sI595
I4
sI596
I4
sI597
I4
sI598
I4
sI599
I4
sI600
I4
sI601
I4
sI602
I4
sI603
I4
sI604
I4
sI605
I4
sI606
I4
sI607
I4
sI608
I4
sI609
I4
sI610
I4
sI611
I4
sI612
I4
sI613
I4
sI614
I4
sI615
I4
sI616
I4
sI617
I4
sI618
I4
sI619
I4
sI620
I4
sI621
I4
sI622
I4
sI623
I4
sI624
I4
sI625
I4
sI626
I4
sI627
I4
sI628
I4
sI629
I4
sI630
I4
sI631
I4
sI632
I4
sI633
I4
sI634
I4
sI635
I4
sI636
I4
sI637
I4
sI638
I4
sI639
I4
sI640
I4
sI641
I4
sI642
I4
sI643
I4
sI644
I4
sI645
I4
sI646
I4
sI647
I4
sI648
I4
sI649
I4
sI650
I4
sI651
I4
sI652
I4
sI653
I4
sI654
I4
sI655
I4
sI656
I4
sI657
I4
sI658
I4
sI659
I4
sI660
I4
sI661
I4
sI662
I4
sI663
I4
sI664
I4
sI665
I4
sI666
I4
sI667
I4
sI668
I4
sI669
I4
sI670
I4
sI671
I4
sI672
I4
sI673
I4
sI674
I4
sI675
I4
sI676
I4
sI677
I4
sI678
I4
sI679
I4
sI680
I4
sI681
I4
sI682
I4
sI683
I4
sI684
I4
sI685
I4
sI686
I4
sI687
I4
sI688
I4
sI689
I4
sI690
I4
sI691
I4
sI692
I4
sI693
I4
sI694
I4
sI695
I4
sI696
I4
sI697
I4
sI698
I4
sI699
I4
sI700
I4
sI701
I4
sI702
I4
sI703
I4
sI704
I4
sI705
I4
sI706
I4
sI707
I4
sI708
I4
sI709
I4
sI710
I4
sI711
I4
sI712
I4
sI713
I4
sI714
I4
sI715
I4
sI716
I4
sI717
I4
sI718
I4
sI719
I4
sI720
I4
sI721
I4
sI722
I4
sI723
I4
sI724
I4
sI725
I4
sI726
I4
sI727
I4
sI728
I4
sI729
I4
sI730
I4
sI731
I4
sI732
I4
sI733
I4
sI734
I4
sI735
I4
sI736
I4
sI737
I4
sI738
I4
sI739
I4
sI740
I4
sI741
I4
sI742
I4
sI743
I4
sI744
I4
sI745
I4
sI746
I4
sI747
I4
sI748
I4
sI749
I4
sI750
I4
sI751
I4
sI752
I4
sI753
I4
sI754
I4
sI755
I4
sI756
I4
sI757
I4
sI758
I4
sI759
I4
sI760
I4
sI761
I4
sI762
I4
sI763
I4
sI764
I4
sI765
I4
sI766
I4
sI767
I4
sI768
I4
sI769
I4
sI770
I4
sI771
I4
sI772
I4
sI773
I4
sI774
I4
sI775
I4
sI776
I4
sI777
I4
sI778
I4
sI779
I4
sI780
I4
sI781
I4
sI782
I4
sI783
I4
sI784
I4
sI785
I4
sI786
I4
sI787
I4
sI788
I4
sI789
I4
sI790
I4
sI791
I4
sI792
I4
sI793
I4
sI794
I4
sI795
I4
sI796
I4
sI797
I4
sI798
I4
sI799
I4
sI800
I4
sI801
I4
sI802
I4
sI803
I4
sI804
I4
sI805
I4
sI806
I4
sI807
I4
sI808
I4
sI809
I4
sI810
I4
sI811
I4
sI812
I4
sI813
I4
sI814
I4
sI815
I4
sI816
I4
sI817
I4
sI818
I4
sI819
I4
sI820
I4
sI821
I4
sI822
I4
sI823
I4
sI824
I4
sI825
I4
sI826
I4
sI827
I4
sI828
I4
sI829
I4
sI830
I4
sI831
I4
sI832
I4
sI833
I4
sI834
I4
sI835
I4
sI836
I4
sI837
I4
sI838
I4
sI839
I4
sI840
I4
sI841
I4
sI842
I4
sI843
I4
sI844
I4
sI845
I4
sI846
I4
sI847
I4
sI848
I4
sI849
I4
sI850
I4
sI851
I4
sI852
I4
sI853
I4
sI854
I4
sI855
I4
sI856
I4
sI857
I4
sI858
I4
sI859
I4
sI860
I4
sI861
I4
sI862
I4
sI863
I4
sI864
I4
sI865
I4
sI866
I4
sI867
I4
sI868
I4
sI869
I4
sI870
I4
sI871
I4
sI872
I4
sI873
I4
sI874
I4
sI875
I4
sI876
I4
sI877
I4
sI878
I4
sI879
I4
sI880
I4
sI881
I4
sI882
I4
sI883
I4
sI884
I4
sI885
I4
sI886
I4
sI887
I4
sI888
I4
sI889
I4
sI890
I4
sI891
I4
sI892
I4
sI893
I4
sI894
I4
sI895
I4
sI896
I4
sI897
I4
sI898
I4
sI899
I4
sI900
I4
sI901
I4
sI902
I4
sI903
I4
sI904
I4
sI905
I4
sI906
I4
sI907
I4
sI908
I4
sI909
I4
sI910
I4
sI911
I2
sI912
I2
sI913
I2
sI914
I2
sI915
I2
sI916
I2
sI917
I2
sI918
I2
sI919
I2
sI920
I2
sI921
I2
sI922
I2
sI923
I2
sI924
I2
sI925
I2
sI926
I2
sI927
I2
sI928
I2
sI929
I2
sI930
I2
sI931
I2
sI932
I2
sI933
I2
sI934
I2
sI935
I2
sI936
I2
sI937
I2
sI938
I2
sI939
I2
sI940
I2
sI941
I2
sI942
I2
sI943
I3
sI944
I3
sI945
I3
sI946
I3
sI947
I3
sI948
I3
sI949
I3
sI950
I3
sI951
I3
sI952
I3
sI953
I3
sI954
I3
sI955
I3
sI956
I3
sI957
I3
sI958
I3
sI959
I3
sI960
I3
sI961
I3
sI962
I3
sI963
I3
sI964
I3
sI965
I3
sI966
I3
sI967
I3
sI968
I3
sI969
I3
sI970
I3
sI971
I3
sI972
I3
sI973
I3
sI974
I3
sI975
I3
sI976
I3
sI977
I3
sI978
I3
sI979
I3
sI980
I3
sI981
I3
sI982
I3
sI983
I3
sI984
I3
sI985
I3
sI986
I3
sI987
I3
sI988
I3
sI989
I3
sI990
I3
sI991
I3
sI992
I3
sI993
I3
sI994
I3
sI995
I3
sI996
I3
sI997
I3
sI998
I3
sI999
I3
sI1000
I3
sI1001
I3
sI1002
I3
sI1003
I3
sI1004
I3
sI1005
I3
sI1006
I3
sI1007
I3
sI1008
I3
sI1009
I3
sI1010
I3
sI1011
I3
sI1012
I3
sI1013
I3
sI1014
I3
sI1015
I3
sI1016
I3
sI1017
I3
sI1018
I3
sI1019
I3
sI1020
I3
sI1021
I3
sI1022
I3
sI1023
I3
sI1024
I3
sI1025
I3
sI1026
I3
sI1027
I3
sI1028
I3
sI1029
I3
sI1030
I3
sI1031
I3
sI1032
I3
sI1033
I3
sI1034
I3
sI1035
I3
sI1036
I3
sI1037
I3
sI1038
I3
sI1039
I3
sI1040
I3
sI1041
I3
sI1042
I3
sI1043
I3
sI1044
I3
sI1045
I3
sI1046
I3
sI1047
I3
sI1048
I3
sI1049
I3
sI1050
I3
sI1051
I3
sI1052
I3
sI1053
I3
sI1054
I3
sI1055
I3
sI1056
I3
sI1057
I3
sI1058
I3
sI1059
I3
sI1060
I3
sI1061
I3
sI1062
I3
sI1063
I3
sI1064
I3
sI1065
I3
sI1066
I3
sI1067
I3
sI1068
I3
sI1069
I3
sI1070
I3
sI1071
I3
sI1072
I3
sI1073
I3
sI1074
I3
sI1075
I3
sI1076
I3
sI1077
I3
sI1078
I3
sI1079
I3
sI1080
I3
sI1081
I3
sI1082
I3
sI1083
I3
sI1084
I3
sI1085
I3
sI1086
I3
sI1087
I3
sI1088
I3
sI1089
I3
sI1090
I3
sI1091
I3
sI1092
I3
sI1093
I3
sI1094
I3
sI1095
I3
sI1096
I3
sI1097
I3
sI1098
I3
sI1099
I3
sI1100
I3
sI1101
I3
sI1102
I3
sI1103
I3
sI1104
I3
sI1105
I3
sI1106
I3
sI1107
I3
sI1108
I3
sI1109
I3
sI1110
I3
sI1111
I3
sI1112
I3
sI1113
I3
sI1114
I3
sI1115
I3
sI1116
I3
sI1117
I3
sI1118
I3
sI1119
I3
sI1120
I3
sI1121
I3
sI1122
I3
sI1123
I3
sI1124
I3
sI1125
I3
sI1126
I3
sI1127
I3
sI1128
I3
sI1129
I3
sI1130
I3
sI1131
I3
sI1132
I3
sI1133
I3
sI1134
I3
sI1135
I3
sI1136
I3
sI1137
I3
sI1138
I3
sI1139
I3
sI1140
I3
sI1141
I3
sI1142
I3
sI1143
I3
sI1144
I3
sI1145
I3
sI1146
I3
sI1147
I3
sI1148
I3
sI1149
I3
sI1150
I3
sI1151
I3
sI1152
I3
sI1153
I3
sI1154
I3
sI1155
I3
sI1156
I3
sI1157
I3
sI1158
I3
sI1159
I3
sI1160
I3
sI1161
I3
sI1162
I3
sI1163
I3
sI1164
I3
sI1165
I3
sI1166
I3
sI1167
I3
sI1168
I3
sI1169
I3
sI1170
I3
sI1171
I3
sI1172
I3
sI1173
I3
sI1174
I3
sI1175
I3
sI1176
I3
sI1177
I3
sI1178
I3
sI1179
I3
sI1180
I3
sI1181
I3
sI1182
I3
sI1183
I3
sI1184
I3
sI1185
I3
sI1186
I3
sI1187
I3
sI1188
I3
sI1189
I3
sI1190
I5
sI1191
I5
sI1192
I5
sI1193
I5
sI1194
I5
sI1195
I5
sI1196
I5
sI1197
I5
sI1198
I5
sI1199
I5
sI1200
I5
sI1201
I5
sI1202
I5
sI1203
I5
sI1204
I5
sI1205
I5
sI1206
I5
sI1207
I5
sI1208
I5
sI1209
I5
sI1210
I5
sa.