(lp1
(dp2
I1
I6
sI2
I6
sI3
I6
sI4
I6
sI5
I6
sI6
I6
sI7
I6
sI8
I6
sI9
I6
sI10
I6
sI11
I6
sI12
I6
sI13
I6
sI14
I6
sI15
I6
sI16
I6
sI17
I6
sI18
I6
sI19
I6
sI20
I6
sI21
I6
sI22
I6
sI23
I6
sI24
I6
sI25
I6
sI26
I6
sI27
I6
sI28
I6
sI29
I6
sI30
I6
sI31
I6
sI32
I6
sI33
I6
sI34
I6
sI35
I6
sI36
I6
sI37
I6
sI38
I6
sI39
I6
sI40
I6
sI41
I6
sI42
I6
sI43
I6
sI44
I6
sI45
I6
sI46
I6
sI47
I6
sI48
I6
sI49
I6
sI50
I6
sI51
I6
sI52
I6
sI53
I6
sI54
I6
sI55
I6
sI56
I6
sI57
I6
sI58
I6
sI59
I6
sI60
I6
sI61
I6
sI62
I6
sI63
I6
sI64
I6
sI65
I6
sI66
I6
sI67
I6
sI68
I6
sI69
I6
sI70
I6
sI71
I6
sI72
I6
sI73
I6
sI74
I6
sI75
I6
sI76
I6
sI77
I6
sI78
I6
sI79
I6
sI80
I6
sI81
I6
sI82
I6
sI83
I6
sI84
I6
sI85
I6
sI86
I6
sI87
I6
sI88
I6
sI89
I6
sI90
I6
sI91
I6
sI92
I6
sI93
I6
sI94
I6
sI95
I6
sI96
I6
sI97
I6
sI98
I6
sI99
I6
sI100
I6
sI101
I6
sI102
I6
sI103
I6
sI104
I6
sI105
I6
sI106
I6
sI107
I6
sI108
I6
sI109
I6
sI110
I6
sI111
I6
sI112
I6
sI113
I6
sI114
I6
sI115
I6
sI116
I6
sI117
I6
sI118
I6
sI119
I6
sI120
I6
sI121
I6
sI122
I6
sI123
I6
sI124
I6
sI125
I6
sI126
I6
sI127
I6
sI128
I6
sI129
I6
sI130
I6
sI131
I6
sI132
I6
sI133
I6
sI134
I6
sI135
I6
sI136
I6
sI137
I6
sI138
I6
sI139
I6
sI140
I6
sI141
I6
sI142
I6
sI143
I6
sI144
I6
sI145
I6
sI146
I6
sI147
I6
sI148
I6
sI149
I6
sI150
I6
sI151
I6
sI152
I6
sI153
I6
sI154
I6
sI155
I6
sI156
I6
sI157
I6
sI158
I6
sI159
I6
sI160
I6
sI161
I6
sI162
I6
sI163
I5
sI164
I5
sI165
I5
sI166
I5
sI167
I5
sI168
I3
sI169
I3
sI170
I3
sI171
I3
sI172
I3
sI173
I3
sI174
I3
sI175
I3
sI176
I3
sI177
I3
sI178
I3
sI179
I3
sI180
I3
sI181
I3
sI182
I3
sI183
I3
sI184
I3
sI185
I3
sI186
I3
sI187
I3
sI188
I3
sI189
I3
sI190
I3
sI191
I3
sI192
I3
sI193
I3
sI194
I3
sI195
I3
sI196
I3
sI197
I3
sI198
I3
sI199
I3
sI200
I3
sI201
I3
sI202
I3
sI203
I3
sI204
I3
sI205
I3
sI206
I3
sI207
I3
sI208
I3
sI209
I3
sI210
I3
sI211
I3
sI212
I3
sI213
I3
sI214
I3
sI215
I3
sI216
I3
sI217
I3
sI218
I3
sI219
I3
sI220
I3
sI221
I3
sI222
I3
sI223
I3
sI224
I3
sI225
I3
sI226
I3
sI227
I3
sI228
I3
sI229
I3
sI230
I3
sI231
I3
sI232
I3
sI233
I3
sI234
I3
sI235
I3
sI236
I3
sI237
I3
sI238
I3
sI239
I3
sI240
I3
sI241
I3
sI242
I3
sI243
I3
sI244
I3
sI245
I3
sI246
I3
sI247
I3
sI248
I3
sI249
I3
sI250
I3
sI251
I3
sI252
I3
sI253
I3
sI254
I3
sI255
I3
sI256
I3
sI257
I3
sI258
I3
sI259
I3
sI260
I3
sI261
I3
sI262
I3
sI263
I3
sI264
I3
sI265
I3
sI266
I3
sI267
I3
sI268
I3
sI269
I3
sI270
I3
sI271
I3
sI272
I3
sI273
I3
sI274
I3
sI275
I3
sI276
I3
sI277
I3
sI278
I3
sI279
I3
sI280
I3
sI281
I3
sI282
I3
sI283
I3
sI284
I3
sI285
I3
sI286
I3
sI287
I3
sI288
I3
sI289
I3
sI290
I3
sI291
I3
sI292
I3
sI293
I3
sI294
I3
sI295
I3
sI296
I3
sI297
I3
sI298
I3
sI299
I3
sI300
I3
sI301
I3
sI302
I3
sI303
I3
sI304
I3
sI305
I3
sI306
I3
sI307
I3
sI308
I3
sI309
I3
sI310
I3
sI311
I3
sI312
I3
sa(dp3
I1
I4
sI2
I4
sI3
I4
sI4
I4
sI5
I4
sI6
I4
sI7
I4
sI8
I4
sI9
I4
sI10
I4
sI11
I4
sI12
I4
sI13
I4
sI14
I4
sI15
I4
sI16
I4
sI17
I4
sI18
I4
sI19
I4
sI20
I4
sI21
I4
sI22
I4
sI23
I4
sI24
I4
sI25
I4
sI26
I4
sI27
I4
sI28
I4
sI29
I4
sI30
I4
sI31
I4
sI32
I4
sI33
I4
sI34
I4
sI35
I4
sI36
I4
sI37
I4
sI38
I4
sI39
I4
sI40
I4
sI41
I4
sI42
I4
sI43
I4
sI44
I4
sI45
I4
sI46
I4
sI47
I4
sI48
I4
sI49
I4
sI50
I4
sI51
I4
sI52
I4
sI53
I4
sI54
I4
sI55
I4
sI56
I4
sI57
I4
sI58
I4
sI59
I4
sI60
I4
sI61
I4
sI62
I4
sI63
I4
sI64
I4
sI65
I4
sI66
I4
sI67
I4
sI68
I4
sI69
I4
sI70
I4
sI71
I4
sI72
I4
sI73
I4
sI74
I4
sI75
I4
sI76
I4
sI77
I4
sI78
I4
sI79
I4
sI80
I4
sI81
I4
sI82
I4
sI83
I4
sI84
I4
sI85
I4
sI86
I4
sI87
I4
sI88
I4
sI89
I4
sI90
I4
sI91
I4
sI92
I4
sI93
I4
sI94
I4
sI95
I4
sI96
I4
sI97
I4
sI98
I4
sI99
I4
sI100
I4
sI101
I4
sI102
I4
sI103
I4
sI104
I4
sI105
I4
sI106
I4
sI107
I4
sI108
I4
sI109
I4
sI110
I4
sI111
I4
sI112
I4
sI113
I4
sI114
I4
sI115
I4
sI116
I4
sI117
I4
sI118
I4
sI119
I4
sI120
I4
sI121
I4
sI122
I4
sI123
I4
sI124
I4
sI125
I4
sI126
I4
sI127
I4
sI128
I4
sI129
I4
sI130
I4
sI131
I4
sI132
I4
sI133
I4
sI134
I4
sI135
I4
sI136
I4
sI137
I4
sI138
I4
sI139
I4
sI140
I4
sI141
I4
sI142
I4
sI143
I4
sI144
I4
sI145
I4
sI146
I4
sI147
I4
sI148
I4
sI149
I4
sI150
I4
sI151
I4
sI152
I4
sI153
I4
sI154
I4
sI155
I4
sI156
I4
sI157
I4
sI158
I4
sI159
I4
sI160
I4
sI161
I4
sI162
I4
sI163
I4
sI164
I4
sI165
I4
sI166
I4
sI167
I4
sI168
I4
sI169
I4
sI170
I4
sI171
I4
sI172
I4
sI173
I4
sI174
I4
sI175
I4
sI176
I4
sI177
I4
sI178
I4
sI179
I4
sI180
I4
sI181
I4
sI182
I4
sI183
I4
sI184
I4
sI185
I4
sI186
I4
sI187
I4
sI188
I4
sI189
I4
sI190
I4
sI191
I4
sI192
I4
sI193
I4
sI194
I4
sI195
I4
sI196
I4
sI197
I4
sI198
I4
sI199
I4
sI200
I4
sI201
I4
sI202
I4
sI203
I4
sI204
I4
sI205
I4
sI206
I4
sI207
I4
sI208
I4
sI209
I4
sI210
I4
sI211
I4
sI212
I4
sI213
I4
sI214
I4
sI215
I4
sI216
I4
sI217
I4
sI218
I4
sI219
I4
sI220
I4
sI221
I4
sI222
I4
sI223
I4
sI224
I4
sI225
I4
sI226
I4
sI227
I4
sI228
I4
sI229
I4
sI230
I4
sI231
I4
sI232
I4
sI233
I4
sI234
I4
sI235
I4
sI236
I4
sI237
I4
sI238
I4
sI239
I4
sI240
I4
sI241
I4
sI242
I4
sI243
I4
sI244
I4
sI245
I4
sI246
I4
sI247
I4
sI248
I3
sI249
I3
sI250
I3
sI251
I3
sI252
I3
sI253
I3
sI254
I3
sI255
I3
sI256
I3
sI257
I3
sI258
I3
sI259
I3
sI260
I3
sI261
I3
sI262
I3
sI263
I3
sI264
I3
sI265
I3
sI266
I3
sI267
I3
sI268
I3
sI269
I3
sI270
I3
sI271
I3
sI272
I3
sI273
I3
sI274
I3
sI275
I3
sI276
I3
sI277
I3
sI278
I3
sI279
I3
sI280
I3
sI281
I3
sI282
I3
sI283
I3
sI284
I3
sI285
I3
sI286
I3
sI287
I3
sI288
I3
sI289
I3
sI290
I3
sI291
I3
sI292
I3
sI293
I3
sI294
I3
sI295
I3
sI296
I3
sI297
I3
sI298
I3
sI299
I3
sI300
I3
sI301
I3
sI302
I3
sI303
I3
sI304
I3
sI305
I3
sI306
I3
sI307
I3
sI308
I3
sI309
I3
sI310
I3
sI311
I3
sI312
I3
sI313
I3
sI314
I3
sI315
I3
sI316
I3
sI317
I3
sI318
I3
sI319
I3
sI320
I3
sI321
I3
sI322
I3
sI323
I3
sI324
I3
sI325
I3
sI326
I3
sI327
I3
sI328
I3
sI329
I3
sI330
I3
sI331
I3
sI332
I3
sI333
I3
sI334
I3
sI335
I3
sI336
I3
sI337
I3
sI338
I3
sI339
I3
sI340
I3
sI341
I3
sI342
I3
sI343
I3
sI344
I3
sI345
I3
sI346
I3
sI347
I3
sI348
I3
sI349
I3
sI350
I3
sI351
I3
sI352
I3
sI353
I3
sI354
I3
sI355
I3
sI356
I3
sI357
I3
sI358
I3
sI359
I3
sI360
I3
sI361
I3
sI362
I3
sI363
I3
sI364
I3
sI365
I3
sI366
I3
sI367
I3
sI368
I3
sI369
I3
sI370
I3
sI371
I3
sI372
I3
sI373
I3
sI374
I3
sI375
I3
sI376
I3
sI377
I3
sI378
I3
sI379
I3
sI380
I3
sa(dp4
I1
I4
sI2
I4
sI3
I4
sI4
I4
sI5
I4
sI6
I4
sI7
I4
sI8
I4
sI9
I4
sI10
I4
sI11
I4
sI12
I4
sI13
I4
sI14
I4
sI15
I4
sI16
I4
sI17
I4
sI18
I4
sI19
I5
sI20
I5
sI21
I5
sI22
I5
sI23
I5
sI24
I5
sI25
I5
sI26
I5
sI27
I5
sI28
I5
sI29
I5
sI30
I5
sI31
I5
sI32
I5
sI33
I5
sI34
I5
sI35
I5
sI36
I5
sI37
I5
sI38
I5
sI39
I5
sI40
I5
sI41
I5
sI42
I5
sI43
I5
sI44
I5
sI45
I5
sI46
I5
sI47
I5
sI48
I5
sI49
I5
sI50
I5
sI51
I5
sI52
I5
sI53
I5
sI54
I5
sI55
I5
sI56
I5
sI57
I5
sI58
I5
sI59
I5
sI60
I5
sI61
I5
sI62
I5
sI63
I5
sI64
I5
sI65
I5
sI66
I5
sI67
I5
sI68
I5
sI69
I5
sI70
I5
sI71
I5
sI72
I5
sI73
I5
sI74
I5
sI75
I5
sI76
I5
sI77
I5
sI78
I5
sI79
I5
sI80
I5
sI81
I5
sI82
I5
sI83
I5
sI84
I5
sI85
I5
sI86
I5
sI87
I5
sI88
I5
sI89
I5
sI90
I5
sI91
I5
sI92
I5
sI93
I5
sI94
I5
sI95
I4
sI96
I4
sI97
I4
sI98
I4
sI99
I4
sI100
I4
sI101
I4
sI102
I4
sI103
I4
sI104
I4
sI105
I4
sI106
I4
sI107
I4
sI108
I4
sI109
I4
sI110
I4
sI111
I4
sI112
I4
sI113
I4
sI114
I4
sI115
I4
sI116
I4
sI117
I4
sI118
I4
sI119
I4
sI120
I4
sI121
I4
sI122
I4
sI123
I4
sI124
I4
sI125
I4
sI126
I4
sI127
I4
sI128
I4
sI129
I4
sI130
I4
sI131
I4
sI132
I4
sI133
I4
sI134
I4
sI135
I4
sI136
I4
sI137
I4
sI138
I4
sI139
I4
sI140
I4
sI141
I4
sI142
I4
sI143
I4
sI144
I4
sI145
I4
sI146
I4
sI147
I4
sI148
I4
sI149
I4
sI150
I4
sI151
I4
sI152
I4
sI153
I4
sI154
I4
sI155
I4
sI156
I4
sI157
I4
sI158
I4
sI159
I4
sI160
I4
sI161
I4
sI162
I4
sI163
I4
sI164
I4
sI165
I4
sI166
I4
sI167
I4
sI168
I4
sI169
I4
sI170
I4
sI171
I4
sI172
I4
sI173
I4
sI174
I4
sI175
I4
sI176
I4
sI177
I4
sI178
I4
sI179
I4
sI180
I4
sI181
I4
sI182
I4
sI183
I4
sI184
I4
sI185
I4
sI186
I4
sI187
I4
sI188
I4
sI189
I4
sI190
I4
sI191
I4
sI192
I4
sI193
I4
sI194
I4
sI195
I4
sI196
I4
sI197
I4
sI198
I4
sI199
I4
sI200
I4
sI201
I4
sI202
I4
sI203
I4
sI204
I4
sI205
I4
sI206
I4
sI207
I4
sI208
I4
sI209
I4
sI210
I4
sI211
I4
sI212
I4
sI213
I4
sI214
I4
sI215
I4
sI216
I4
sI217
I4
sI218
I4
sI219
I4
sI220
I4
sI221
I4
sI222
I4
sI223
I4
sI224
I4
sI225
I4
sI226
I4
sI227
I4
sI228
I4
sI229
I4
sI230
I4
sI231
I4
sI232
I4
sI233
I4
sI234
I4
sI235
I4
sI236
I4
sI237
I4
sI238
I4
sI239
I4
sI240
I4
sI241
I4
sI242
I4
sI243
I4
sI244
I4
sI245
I4
sI246
I4
sI247
I4
sI248
I4
sI249
I4
sI250
I4
sI251
I4
sI252
I4
sI253
I4
sI254
I4
sI255
I4
sI256
I4
sI257
I4
sI258
I4
sI259
I4
sI260
I4
sI261
I4
sI262
I4
sI263
I4
sI264
I4
sI265
I4
sI266
I4
sI267
I4
sI268
I4
sI269
I4
sI270
I4
sI271
I4
sI272
I4
sI273
I4
sI274
I4
sI275
I4
sI276
I4
sI277
I4
sI278
I4
sI279
I4
sI280
I4
sI281
I4
sI282
I4
sI283
I4
sI284
I4
sI285
I4
sI286
I4
sI287
I4
sI288
I4
sI289
I4
sI290
I4
sI291
I4
sI292
I4
sI293
I4
sI294
I4
sI295
I4
sI296
I4
sI297
I4
sI298
I4
sI299
I4
sI300
I4
sI301
I4
sI302
I4
sI303
I4
sI304
I4
sI305
I4
sI306
I4
sI307
I4
sI308
I4
sI309
I4
sI310
I4
sI311
I4
sI312
I4
sI313
I4
sI314
I4
sI315
I4
sI316
I4
sI317
I4
sI318
I4
sI319
I4
sI320
I4
sI321
I4
sI322
I4
sI323
I4
sI324
I4
sI325
I4
sI326
I4
sI327
I4
sI328
I4
sI329
I4
sI330
I4
sI331
I4
sI332
I2
sI333
I2
sI334
I2
sI335
I2
sI336
I2
sI337
I2
sI338
I2
sI339
I2
sI340
I2
sI341
I2
sI342
I2
sI343
I2
sI344
I2
sI345
I2
sI346
I2
sa(dp5
I1
I2
sI2
I2
sI3
I2
sI4
I2
sI5
I2
sI6
I2
sI7
I2
sI8
I2
sI9
I2
sI10
I2
sI11
I2
sI12
I2
sI13
I2
sI14
I2
sI15
I2
sI16
I2
sI17
I2
sI18
I2
sI19
I2
sI20
I2
sI21
I2
sI22
I2
sI23
I2
sI24
I2
sI25
I2
sI26
I2
sI27
I2
sI28
I2
sI29
I2
sI30
I2
sI31
I2
sI32
I2
sI33
I2
sI34
I2
sI35
I2
sI36
I2
sI37
I2
sI38
I3
sI39
I3
sI40
I3
sI41
I3
sI42
I3
sI43
I3
sI44
I3
sI45
I3
sI46
I3
sI47
I3
sI48
I3
sI49
I3
sI50
I3
sI51
I3
sI52
I3
sI53
I3
sI54
I3
sI55
I3
sI56
I3
sI57
I3
sI58
I3
sI59
I3
sI60
I3
sI61
I3
sI62
I3
sI63
I3
sI64
I3
sI65
I3
sI66
I3
sI67
I3
sI68
I3
sI69
I3
sI70
I3
sI71
I3
sI72
I3
sI73
I2
sI74
I2
sI75
I2
sI76
I2
sI77
I2
sI78
I2
sI79
I2
sI80
I2
sI81
I2
sI82
I2
sI83
I2
sI84
I2
sI85
I2
sI86
I2
sI87
I2
sI88
I2
sI89
I1
sI90
I1
sI91
I1
sI92
I1
sI93
I1
sI94
I1
sI95
I3
sI96
I3
sI97
I3
sI98
I3
sI99
I3
sI100
I3
sI101
I3
sI102
I3
sI103
I3
sI104
I3
sI105
I3
sI106
I3
sI107
I3
sI108
I3
sI109
I3
sI110
I3
sI111
I3
sI112
I3
sI113
I3
sI114
I3
sI115
I3
sI116
I3
sI117
I3
sI118
I3
sI119
I3
sI120
I3
sI121
I3
sI122
I3
sI123
I3
sI124
I3
sI125
I3
sI126
I3
sI127
I3
sI128
I3
sI129
I3
sI130
I3
sI131
I3
sI132
I3
sI133
I3
sI134
I3
sI135
I3
sI136
I3
sI137
I3
sI138
I3
sI139
I3
sI140
I3
sI141
I3
sI142
I3
sI143
I3
sI144
I3
sI145
I3
sI146
I3
sI147
I3
sI148
I3
sI149
I3
sI150
I3
sI151
I3
sI152
I3
sI153
I3
sI154
I3
sI155
I3
sI156
I3
sI157
I3
sI158
I3
sI159
I3
sI160
I3
sI161
I3
sI162
I3
sI163
I3
sI164
I3
sI165
I3
sI166
I3
sI167
I3
sI168
I3
sI169
I3
sI170
I3
sI171
I3
sI172
I3
sI173
I3
sI174
I3
sI175
I3
sI176
I3
sI177
I3
sI178
I3
sI179
I3
sI180
I3
sI181
I3
sI182
I3
sI183
I3
sI184
I3
sI185
I3
sI186
I3
sI187
I3
sI188
I3
sI189
I3
sI190
I3
sI191
I3
sI192
I3
sI193
I3
sI194
I3
sI195
I3
sI196
I3
sI197
I3
sI198
I3
sI199
I3
sI200
I3
sI201
I3
sI202
I3
sI203
I3
sI204
I3
sI205
I3
sI206
I3
sI207
I3
sI208
I3
sI209
I3
sI210
I3
sI211
I3
sI212
I3
sI213
I3
sI214
I3
sI215
I3
sI216
I3
sI217
I3
sI218
I3
sI219
I3
sI220
I3
sI221
I3
sI222
I3
sI223
I3
sI224
I3
sI225
I3
sI226
I3
sI227
I3
sI228
I3
sI229
I3
sI230
I3
sI231
I3
sI232
I3
sI233
I3
sI234
I3
sI235
I3
sI236
I3
sI237
I3
sI238
I3
sI239
I3
sI240
I3
sI241
I3
sI242
I3
sI243
I3
sI244
I3
sI245
I3
sI246
I3
sI247
I3
sI248
I3
sI249
I3
sI250
I3
sI251
I3
sI252
I3
sI253
I3
sI254
I3
sI255
I3
sI256
I3
sI257
I3
sI258
I3
sI259
I3
sI260
I3
sI261
I3
sI262
I3
sI263
I3
sI264
I3
sI265
I3
sI266
I3
sI267
I3
sI268
I3
sI269
I3
sI270
I3
sI271
I3
sI272
I3
sI273
I3
sI274
I3
sI275
I3
sI276
I3
sI277
I3
sI278
I3
sI279
I3
sI280
I3
sI281
I3
sI282
I3
sI283
I3
sI284
I3
sI285
I3
sI286
I3
sI287
I3
sI288
I3
sI289
I3
sI290
I3
sI291
I3
sI292
I3
sI293
I3
sI294
I3
sI295
I3
sI296
I3
sI297
I3
sI298
I3
sI299
I3
sI300
I3
sI301
I3
sI302
I3
sI303
I3
sI304
I3
sI305
I3
sI306
I3
sI307
I3
sI308
I3
sI309
I3
sI310
I3
sI311
I3
sI312
I3
sI313
I3
sI314
I3
sI315
I3
sI316
I3
sI317
I3
sI318
I3
sI319
I3
sI320
I3
sI321
I3
sI322
I3
sI323
I3
sI324
I3
sI325
I3
sI326
I3
sI327
I3
sI328
I3
sI329
I3
sI330
I3
sI331
I3
sI332
I3
sI333
I3
sI334
I3
sI335
I3
sI336
I3
sI337
I3
sI338
I3
sI339
I3
sI340
I3
sI341
I3
sI342
I3
sI343
I3
sI344
I3
sI345
I3
sI346
I3
sI347
I3
sI348
I3
sI349
I3
sI350
I3
sI351
I3
sI352
I3
sI353
I3
sI354
I3
sI355
I3
sI356
I3
sI357
I3
sI358
I3
sI359
I3
sI360
I3
sI361
I3
sI362
I3
sI363
I3
sI364
I3
sI365
I3
sI366
I3
sI367
I3
sI368
I3
sI369
I3
sI370
I3
sI371
I3
sI372
I3
sI373
I3
sI374
I3
sI375
I3
sI376
I3
sI377
I3
sI378
I3
sI379
I3
sI380
I3
sI381
I3
sI382
I3
sI383
I3
sI384
I3
sI385
I3
sI386
I3
sI387
I3
sI388
I3
sI389
I3
sI390
I3
sI391
I3
sI392
I3
sI393
I3
sI394
I3
sI395
I3
sI396
I3
sI397
I3
sI398
I3
sI399
I3
sI400
I3
sI401
I3
sI402
I3
sI403
I3
sI404
I3
sI405
I3
sI406
I3
sI407
I3
sI408
I3
sI409
I3
sI410
I3
sI411
I3
sI412
I3
sI413
I3
sI414
I3
sI415
I3
sI416
I3
sI417
I3
sI418
I3
sI419
I3
sI420
I3
sI421
I3
sI422
I3
sI423
I3
sI424
I3
sI425
I3
sI426
I3
sI427
I3
sI428
I3
sI429
I3
sa(dp6
I1
I5
sI2
I5
sI3
I5
sI4
I5
sI5
I3
sI6
I3
sI7
I3
sI8
I3
sI9
I3
sI10
I3
sI11
I3
sI12
I3
sI13
I3
sI14
I3
sI15
I3
sI16
I3
sI17
I3
sI18
I3
sI19
I3
sI20
I3
sI21
I3
sI22
I3
sI23
I3
sI24
I3
sI25
I3
sI26
I3
sI27
I3
sI28
I3
sI29
I3
sI30
I3
sI31
I3
sI32
I3
sI33
I3
sI34
I3
sI35
I3
sI36
I3
sI37
I3
sI38
I3
sI39
I3
sI40
I3
sI41
I3
sI42
I3
sI43
I3
sI44
I3
sI45
I3
sI46
I3
sI47
I3
sI48
I3
sI49
I3
sI50
I3
sI51
I3
sI52
I3
sI53
I3
sI54
I3
sI55
I3
sI56
I3
sI57
I3
sI58
I3
sI59
I3
sI60
I3
sI61
I3
sI62
I3
sI63
I3
sI64
I3
sI65
I3
sI66
I3
sI67
I3
sI68
I3
sI69
I3
sI70
I3
sI71
I3
sI72
I3
sI73
I3
sI74
I3
sI75
I3
sI76
I3
sI77
I3
sI78
I3
sI79
I3
sI80
I3
sI81
I3
sI82
I3
sI83
I3
sI84
I3
sI85
I3
sI86
I3
sI87
I3
sI88
I3
sI89
I3
sI90
I3
sI91
I3
sI92
I3
sI93
I3
sI94
I3
sI95
I4
sI96
I4
sI97
I4
sI98
I4
sI99
I4
sI100
I4
sI101
I4
sI102
I4
sI103
I4
sI104
I4
sI105
I4
sI106
I4
sI107
I4
sI108
I4
sI109
I4
sI110
I4
sI111
I4
sI112
I4
sI113
I4
sI114
I4
sI115
I4
sI116
I4
sI117
I4
sI118
I4
sI119
I4
sI120
I4
sI121
I4
sI122
I4
sI123
I4
sI124
I4
sI125
I4
sI126
I4
sI127
I4
sI128
I4
sI129
I4
sI130
I4
sI131
I4
sI132
I4
sI133
I4
sI134
I4
sI135
I4
sI136
I4
sI137
I4
sI138
I4
sI139
I4
sI140
I4
sI141
I4
sI142
I4
sI143
I4
sI144
I4
sI145
I4
sI146
I4
sI147
I4
sI148
I4
sI149
I4
sI150
I4
sI151
I4
sI152
I4
sI153
I4
sI154
I4
sI155
I4
sI156
I4
sI157
I4
sI158
I4
sI159
I4
sI160
I4
sI161
I4
sI162
I4
sI163
I4
sI164
I4
sI165
I4
sI166
I4
sI167
I4
sI168
I4
sI169
I4
sI170
I4
sI171
I4
sI172
I4
sI173
I4
sI174
I4
sI175
I4
sI176
I4
sI177
I4
sI178
I4
sI179
I4
sI180
I4
sI181
I4
sI182
I4
sI183
I4
sI184
I4
sI185
I4
sI186
I4
sI187
I4
sI188
I4
sI189
I4
sI190
I4
sI191
I4
sI192
I4
sI193
I4
sI194
I4
sI195
I4
sI196
I4
sI197
I4
sI198
I4
sI199
I4
sI200
I3
sI201
I3
sI202
I3
sI203
I3
sI204
I3
sI205
I3
sI206
I3
sI207
I3
sI208
I3
sI209
I3
sI210
I3
sI211
I3
sI212
I3
sI213
I3
sI214
I3
sI215
I3
sI216
I3
sI217
I3
sI218
I3
sI219
I3
sI220
I3
sI221
I3
sI222
I3
sI223
I3
sI224
I3
sI225
I3
sI226
I3
sI227
I3
sI228
I3
sI229
I3
sI230
I3
sI231
I3
sI232
I3
sI233
I3
sI234
I3
sI235
I3
sI236
I3
sI237
I3
sI238
I3
sI239
I3
sI240
I3
sI241
I3
sI242
I3
sI243
I3
sI244
I3
sI245
I3
sI246
I3
sI247
I3
sI248
I3
sI249
I3
sI250
I3
sI251
I3
sI252
I3
sI253
I3
sI254
I3
sI255
I3
sI256
I3
sI257
I3
sI258
I3
sI259
I3
sI260
I3
sI261
I3
sI262
I3
sI263
I3
sI264
I3
sI265
I3
sI266
I3
sI267
I3
sI268
I3
sI269
I3
sI270
I3
sI271
I3
sI272
I3
sI273
I3
sI274
I3
sI275
I3
sI276
I3
sI277
I3
sI278
I3
sI279
I3
sI280
I3
sI281
I3
sI282
I3
sI283
I3
sI284
I3
sI285
I3
sI286
I3
sI287
I3
sI288
I3
sI289
I3
sI290
I3
sI291
I3
sI292
I3
sI293
I3
sI294
I3
sI295
I3
sI296
I3
sI297
I3
sI298
I3
sI299
I3
sI300
I3
sI301
I3
sI302
I3
sI303
I3
sI304
I3
sI305
I3
sI306
I3
sI307
I3
sI308
I3
sI309
I3
sI310
I3
sI311
I3
sI312
I3
sI313
I3
sI314
I3
sI315
I3
sI316
I3
sI317
I3
sI318
I3
sI319
I3
sI320
I3
sI321
I3
sI322
I3
sI323
I3
sI324
I3
sI325
I3
sI326
I3
sI327
I3
sI328
I3
sI329
I3
sI330
I3
sI331
I3
sI332
I3
sI333
I3
sI334
I3
sI335
I3
sI336
I3
sI337
I3
sI338
I3
sI339
I3
sI340
I3
sI341
I3
sI342
I3
sI343
I3
sI344
I3
sI345
I3
sI346
I3
sI347
I3
sI348
I3
sI349
I3
sI350
I3
sI351
I3
sI352
I3
sI353
I3
sI354
I3
sI355
I3
sI356
I3
sI357
I3
sI358
I3
sI359
I3
sI360
I3
sI361
I3
sI362
I3
sI363
I3
sI364
I3
sI365
I3
sI366
I3
sI367
I3
sI368
I3
sI369
I3
sI370
I3
sI371
I3
sI372
I3
sI373
I3
sI374
I3
sI375
I3
sI376
I3
sI377
I3
sI378
I3
sI379
I3
sI380
I3
sI381
I2
sI382
I2
sI383
I2
sI384
I2
sI385
I2
sI386
I2
sI387
I2
sI388
I2
sI389
I2
sI390
I2
sI391
I2
sI392
I2
sI393
I2
sI394
I2
sI395
I2
sI396
I2
sI397
I2
sI398
I2
sI399
I2
sI400
I2
sI401
I2
sI402
I2
sI403
I2
sa.